(dp1
S'output'
p2
S"<type 'exceptions.IOError'> Connection To Listener Terminated. Exiting."
p3
sS'layer'
p4
S'/home/schultzc/workspace/web2py/applications/mfpdcb/controllers/default.py'
p5
sS'code'
p6
S'# -*- coding: utf-8 -*-\n### required - do no delete\nimport urllib\n\nclass AjaxSender():\n    \n    def sendCommand(self,url,message,group=\'boxes\'):\n        params = urllib.urlencode({\'message\': message, \'group\':group})\n        try:\n            f = urllib.urlopen(url, params)\n        except IOError:\n            raise IOError(\'Connection To Listener Terminated. Exiting.\')\n        f.read()\n        f.close()\n        pass\n\n\ndef user(): return dict(form=auth())\ndef download(): return response.download(request,db)\ndef call(): return service()\n### end requires\ndef index():\n    return dict(form=auth())\n\ndef clientdz():\n    text = request.post_vars[\'text\']\n    return dict(test=text)\n\ndef error():\n    return dict()\n\n\ndef testing():\n    form=LOAD(\'default\',\'ajax_form\',ajax=True)\n    script=SCRIPT(\'\'\'\n        jQuery(document).ready(function(){\n          var callback=function(e){alert(e.data)};\n          if(!web2py_comet(\'ws://127.0.0.1:8888/realtime/mygroup\',callback))\n            alert("html5 websocket not supported by your browser, try Google Chrome");\n        });\n    \'\'\')\n    return dict(form=form, script=script)\n\ndef ajaxproxy():\n    url = \'http://127.0.0.1:9002/\'\n    message = request.post_vars[\'message\']\n    group = request.post_vars[\'group\']\n    sender = AjaxSender();\n    sender.sendCommand(url, message, group)\n    return dict()\n\n@auth.requires_login()\ndef shell():\n    \n    return dict()\n\n@auth.requires_login()\ndef machines():\n    machines = db().select(db.machines.ALL, orderby=db.machines.uuid)\n    return dict(machines=machines)\n\n\n\n@auth.requires_login()\n@service.jsonrpc\ndef execute(cmd, args=None):\n    if args == None:\n        command = cmd\n    else:\n        command = [cmd,args]\n    import subprocess\n    proc = subprocess.Popen(command, shell=False, stdout=subprocess.PIPE, stderr=subprocess.PIPE, stdin=subprocess.PIPE)\n    stdout = proc.stdout.read() + proc.stderr.read()\n    return stdout\n\n\n\nresponse._vars=response._caller(ajaxproxy)\n'
p7
sS'snapshot'
p8
(dp9
S'exception'
p10
(dp11
S'__getslice__'
p12
S"<method-wrapper '__getslice__' of exceptions.IOError object>"
p13
sS'__str__'
p14
S"<method-wrapper '__str__' of exceptions.IOError object>"
p15
sS'__reduce__'
p16
S'<built-in method __reduce__ of exceptions.IOError object>'
p17
sS'__dict__'
p18
S'{}'
p19
sS'__sizeof__'
p20
S'<built-in method __sizeof__ of exceptions.IOError object>'
p21
sS'__init__'
p22
S"<method-wrapper '__init__' of exceptions.IOError object>"
p23
sS'__setattr__'
p24
S"<method-wrapper '__setattr__' of exceptions.IOError object>"
p25
sS'__reduce_ex__'
p26
S'<built-in method __reduce_ex__ of exceptions.IOError object>'
p27
sS'__new__'
p28
S'<built-in method __new__ of type object>'
p29
sS'errno'
p30
S'None'
p31
sS'__format__'
p32
S'<built-in method __format__ of exceptions.IOError object>'
p33
sS'__class__'
p34
S"<type 'exceptions.IOError'>"
p35
sS'filename'
p36
S'None'
p37
sS'__doc__'
p38
S"'I/O operation failed.'"
p39
sS'__getitem__'
p40
S"<method-wrapper '__getitem__' of exceptions.IOError object>"
p41
sS'__setstate__'
p42
S'<built-in method __setstate__ of exceptions.IOError object>'
p43
sS'__getattribute__'
p44
S"<method-wrapper '__getattribute__' of exceptions.IOError object>"
p45
sS'args'
p46
S"('Connection To Listener Terminated. Exiting.',)"
p47
sS'__subclasshook__'
p48
S'<built-in method __subclasshook__ of type object>'
p49
sS'__unicode__'
p50
S'<built-in method __unicode__ of exceptions.IOError object>'
p51
sS'strerror'
p52
S'None'
p53
sS'__delattr__'
p54
S"<method-wrapper '__delattr__' of exceptions.IOError object>"
p55
sS'__repr__'
p56
S"<method-wrapper '__repr__' of exceptions.IOError object>"
p57
sS'__hash__'
p58
S"<method-wrapper '__hash__' of exceptions.IOError object>"
p59
ssS'evalue'
p60
S'Connection To Listener Terminated. Exiting.'
p61
sS'request'
p62
ccopy_reg
_reconstructor
p63
(cgluon.html
BEAUTIFY
p64
c__builtin__
object
p65
NtRp66
(dp67
S'attributes'
p68
(dp69
sS'components'
p70
(lp71
g63
(cgluon.html
TABLE
p72
g65
NtRp73
(dp74
g68
(dp75
S'level'
p76
I5
ssS'parent'
p77
Nsg70
(lp78
g63
(cgluon.html
TR
p79
g65
NtRp80
(dp81
g68
(dp82
sg77
g73
sg70
(lp83
g63
(cgluon.html
TD
p84
g65
NtRp85
(dp86
g68
(dp87
S'_style'
p88
S'font-weight:bold;vertical-align:top'
p89
ssg77
g80
sg70
(lp90
S'ajax'
p91
asbag63
(g84
g65
NtRp92
(dp93
g68
(dp94
S'_valign'
p95
S'top'
p96
ssg77
g80
sg70
(lp97
S':'
asbag63
(g84
g65
NtRp98
(dp99
g68
(dp100
sg77
g80
sg70
(lp101
g63
(g64
g65
NtRp102
(dp103
g68
(dp104
g76
I5
ssg77
g98
sg70
(lp105
S'True'
p106
asbasbasbag63
(g79
g65
NtRp107
(dp108
g68
(dp109
sg77
g73
sg70
(lp110
g63
(g84
g65
NtRp111
(dp112
g68
(dp113
g88
g89
ssg77
g107
sg70
(lp114
S'application'
p115
asbag63
(g84
g65
NtRp116
(dp117
g68
(dp118
g95
g96
ssg77
g107
sg70
(lp119
S':'
asbag63
(g84
g65
NtRp120
(dp121
g68
(dp122
sg77
g107
sg70
(lp123
g63
(g64
g65
NtRp124
(dp125
g68
(dp126
g76
I5
ssg77
g120
sg70
(lp127
S'mfpdcb'
p128
asbasbasbag63
(g79
g65
NtRp129
(dp130
g68
(dp131
sg77
g73
sg70
(lp132
g63
(g84
g65
NtRp133
(dp134
g68
(dp135
g88
g89
ssg77
g129
sg70
(lp136
g46
asbag63
(g84
g65
NtRp137
(dp138
g68
(dp139
g95
g96
ssg77
g129
sg70
(lp140
S':'
asbag63
(g84
g65
NtRp141
(dp142
g68
(dp143
sg77
g129
sg70
(lp144
g63
(g64
g65
NtRp145
(dp146
g68
(dp147
g76
I5
ssg77
g141
sg70
(lp148
g63
(g72
g65
NtRp149
(dp150
g68
(dp151
g76
I4
ssg77
Nsg70
(lp152
sbasbasbasbag63
(g79
g65
NtRp153
(dp154
g68
(dp155
sg77
g73
sg70
(lp156
g63
(g84
g65
NtRp157
(dp158
g68
(dp159
g88
g89
ssg77
g153
sg70
(lp160
S'body'
p161
asbag63
(g84
g65
NtRp162
(dp163
g68
(dp164
g95
g96
ssg77
g153
sg70
(lp165
S':'
asbag63
(g84
g65
NtRp166
(dp167
g68
(dp168
sg77
g153
sg70
(lp169
g63
(g64
g65
NtRp170
(dp171
g68
(dp172
g76
I5
ssg77
g166
sg70
(lp173
S"<open file '<fdopen>', mode 'w+b' at 0x3575f60>"
p174
asbasbasbag63
(g79
g65
NtRp175
(dp176
g68
(dp177
sg77
g73
sg70
(lp178
g63
(g84
g65
NtRp179
(dp180
g68
(dp181
g88
g89
ssg77
g175
sg70
(lp182
S'client'
p183
asbag63
(g84
g65
NtRp184
(dp185
g68
(dp186
g95
g96
ssg77
g175
sg70
(lp187
S':'
asbag63
(g84
g65
NtRp188
(dp189
g68
(dp190
sg77
g175
sg70
(lp191
g63
(g64
g65
NtRp192
(dp193
g68
(dp194
g76
I5
ssg77
g188
sg70
(lp195
S'127.0.0.1'
p196
asbasbasbag63
(g79
g65
NtRp197
(dp198
g68
(dp199
sg77
g73
sg70
(lp200
g63
(g84
g65
NtRp201
(dp202
g68
(dp203
g88
g89
ssg77
g197
sg70
(lp204
S'controller'
p205
asbag63
(g84
g65
NtRp206
(dp207
g68
(dp208
g95
g96
ssg77
g197
sg70
(lp209
S':'
asbag63
(g84
g65
NtRp210
(dp211
g68
(dp212
sg77
g197
sg70
(lp213
g63
(g64
g65
NtRp214
(dp215
g68
(dp216
g76
I5
ssg77
g210
sg70
(lp217
S'default'
p218
asbasbasbag63
(g79
g65
NtRp219
(dp220
g68
(dp221
sg77
g73
sg70
(lp222
g63
(g84
g65
NtRp223
(dp224
g68
(dp225
g88
g89
ssg77
g219
sg70
(lp226
S'cookies'
p227
asbag63
(g84
g65
NtRp228
(dp229
g68
(dp230
g95
g96
ssg77
g219
sg70
(lp231
S':'
asbag63
(g84
g65
NtRp232
(dp233
g68
(dp234
sg77
g219
sg70
(lp235
g63
(g64
g65
NtRp236
(dp237
g68
(dp238
g76
I5
ssg77
g232
sg70
(lp239
g63
(g72
g65
NtRp240
(dp241
g68
(dp242
g76
I4
ssg77
Nsg70
(lp243
g63
(g79
g65
NtRp244
(dp245
g68
(dp246
sg77
g240
sg70
(lp247
g63
(g84
g65
NtRp248
(dp249
g68
(dp250
g88
g89
ssg77
g244
sg70
(lp251
S'session_id_mfpdcb'
p252
asbag63
(g84
g65
NtRp253
(dp254
g68
(dp255
g95
g96
ssg77
g244
sg70
(lp256
S':'
asbag63
(g84
g65
NtRp257
(dp258
g68
(dp259
sg77
g244
sg70
(lp260
g63
(g64
g65
NtRp261
(dp262
g68
(dp263
g76
I4
ssg77
g257
sg70
(lp264
g63
(g72
g65
NtRp265
(dp266
g68
(dp267
g76
I3
ssg77
Nsg70
(lp268
g63
(g79
g65
NtRp269
(dp270
g68
(dp271
sg77
g265
sg70
(lp272
g63
(g84
g65
NtRp273
(dp274
g68
(dp275
g88
g89
ssg77
g269
sg70
(lp276
S'comment'
p277
asbag63
(g84
g65
NtRp278
(dp279
g68
(dp280
g95
g96
ssg77
g269
sg70
(lp281
S':'
asbag63
(g84
g65
NtRp282
(dp283
g68
(dp284
sg77
g269
sg70
(lp285
g63
(g64
g65
NtRp286
(dp287
g68
(dp288
g76
I3
ssg77
g282
sg70
(lp289
S''
asbasbasbag63
(g79
g65
NtRp290
(dp291
g68
(dp292
sg77
g265
sg70
(lp293
g63
(g84
g65
NtRp294
(dp295
g68
(dp296
g88
g89
ssg77
g290
sg70
(lp297
S'domain'
p298
asbag63
(g84
g65
NtRp299
(dp300
g68
(dp301
g95
g96
ssg77
g290
sg70
(lp302
S':'
asbag63
(g84
g65
NtRp303
(dp304
g68
(dp305
sg77
g290
sg70
(lp306
g63
(g64
g65
NtRp307
(dp308
g68
(dp309
g76
I3
ssg77
g303
sg70
(lp310
S''
asbasbasbag63
(g79
g65
NtRp311
(dp312
g68
(dp313
sg77
g265
sg70
(lp314
g63
(g84
g65
NtRp315
(dp316
g68
(dp317
g88
g89
ssg77
g311
sg70
(lp318
S'expires'
p319
asbag63
(g84
g65
NtRp320
(dp321
g68
(dp322
g95
g96
ssg77
g311
sg70
(lp323
S':'
asbag63
(g84
g65
NtRp324
(dp325
g68
(dp326
sg77
g311
sg70
(lp327
g63
(g64
g65
NtRp328
(dp329
g68
(dp330
g76
I3
ssg77
g324
sg70
(lp331
S''
asbasbasbag63
(g79
g65
NtRp332
(dp333
g68
(dp334
sg77
g265
sg70
(lp335
g63
(g84
g65
NtRp336
(dp337
g68
(dp338
g88
g89
ssg77
g332
sg70
(lp339
S'httponly'
p340
asbag63
(g84
g65
NtRp341
(dp342
g68
(dp343
g95
g96
ssg77
g332
sg70
(lp344
S':'
asbag63
(g84
g65
NtRp345
(dp346
g68
(dp347
sg77
g332
sg70
(lp348
g63
(g64
g65
NtRp349
(dp350
g68
(dp351
g76
I3
ssg77
g345
sg70
(lp352
S''
asbasbasbag63
(g79
g65
NtRp353
(dp354
g68
(dp355
sg77
g265
sg70
(lp356
g63
(g84
g65
NtRp357
(dp358
g68
(dp359
g88
g89
ssg77
g353
sg70
(lp360
S'max-age'
p361
asbag63
(g84
g65
NtRp362
(dp363
g68
(dp364
g95
g96
ssg77
g353
sg70
(lp365
S':'
asbag63
(g84
g65
NtRp366
(dp367
g68
(dp368
sg77
g353
sg70
(lp369
g63
(g64
g65
NtRp370
(dp371
g68
(dp372
g76
I3
ssg77
g366
sg70
(lp373
S''
asbasbasbag63
(g79
g65
NtRp374
(dp375
g68
(dp376
sg77
g265
sg70
(lp377
g63
(g84
g65
NtRp378
(dp379
g68
(dp380
g88
g89
ssg77
g374
sg70
(lp381
S'path'
p382
asbag63
(g84
g65
NtRp383
(dp384
g68
(dp385
g95
g96
ssg77
g374
sg70
(lp386
S':'
asbag63
(g84
g65
NtRp387
(dp388
g68
(dp389
sg77
g374
sg70
(lp390
g63
(g64
g65
NtRp391
(dp392
g68
(dp393
g76
I3
ssg77
g387
sg70
(lp394
S''
asbasbasbag63
(g79
g65
NtRp395
(dp396
g68
(dp397
sg77
g265
sg70
(lp398
g63
(g84
g65
NtRp399
(dp400
g68
(dp401
g88
g89
ssg77
g395
sg70
(lp402
S'secure'
p403
asbag63
(g84
g65
NtRp404
(dp405
g68
(dp406
g95
g96
ssg77
g395
sg70
(lp407
S':'
asbag63
(g84
g65
NtRp408
(dp409
g68
(dp410
sg77
g395
sg70
(lp411
g63
(g64
g65
NtRp412
(dp413
g68
(dp414
g76
I3
ssg77
g408
sg70
(lp415
S''
asbasbasbag63
(g79
g65
NtRp416
(dp417
g68
(dp418
sg77
g265
sg70
(lp419
g63
(g84
g65
NtRp420
(dp421
g68
(dp422
g88
g89
ssg77
g416
sg70
(lp423
S'version'
p424
asbag63
(g84
g65
NtRp425
(dp426
g68
(dp427
g95
g96
ssg77
g416
sg70
(lp428
S':'
asbag63
(g84
g65
NtRp429
(dp430
g68
(dp431
sg77
g416
sg70
(lp432
g63
(g64
g65
NtRp433
(dp434
g68
(dp435
g76
I3
ssg77
g429
sg70
(lp436
S''
asbasbasbasbasbasbasbag63
(g79
g65
NtRp437
(dp438
g68
(dp439
sg77
g240
sg70
(lp440
g63
(g84
g65
NtRp441
(dp442
g68
(dp443
g88
g89
ssg77
g437
sg70
(lp444
S'session_id_welcome'
p445
asbag63
(g84
g65
NtRp446
(dp447
g68
(dp448
g95
g96
ssg77
g437
sg70
(lp449
S':'
asbag63
(g84
g65
NtRp450
(dp451
g68
(dp452
sg77
g437
sg70
(lp453
g63
(g64
g65
NtRp454
(dp455
g68
(dp456
g76
I4
ssg77
g450
sg70
(lp457
g63
(g72
g65
NtRp458
(dp459
g68
(dp460
g76
I3
ssg77
Nsg70
(lp461
g63
(g79
g65
NtRp462
(dp463
g68
(dp464
sg77
g458
sg70
(lp465
g63
(g84
g65
NtRp466
(dp467
g68
(dp468
g88
g89
ssg77
g462
sg70
(lp469
g277
asbag63
(g84
g65
NtRp470
(dp471
g68
(dp472
g95
g96
ssg77
g462
sg70
(lp473
S':'
asbag63
(g84
g65
NtRp474
(dp475
g68
(dp476
sg77
g462
sg70
(lp477
g63
(g64
g65
NtRp478
(dp479
g68
(dp480
g76
I3
ssg77
g474
sg70
(lp481
S''
asbasbasbag63
(g79
g65
NtRp482
(dp483
g68
(dp484
sg77
g458
sg70
(lp485
g63
(g84
g65
NtRp486
(dp487
g68
(dp488
g88
g89
ssg77
g482
sg70
(lp489
g298
asbag63
(g84
g65
NtRp490
(dp491
g68
(dp492
g95
g96
ssg77
g482
sg70
(lp493
S':'
asbag63
(g84
g65
NtRp494
(dp495
g68
(dp496
sg77
g482
sg70
(lp497
g63
(g64
g65
NtRp498
(dp499
g68
(dp500
g76
I3
ssg77
g494
sg70
(lp501
S''
asbasbasbag63
(g79
g65
NtRp502
(dp503
g68
(dp504
sg77
g458
sg70
(lp505
g63
(g84
g65
NtRp506
(dp507
g68
(dp508
g88
g89
ssg77
g502
sg70
(lp509
g319
asbag63
(g84
g65
NtRp510
(dp511
g68
(dp512
g95
g96
ssg77
g502
sg70
(lp513
S':'
asbag63
(g84
g65
NtRp514
(dp515
g68
(dp516
sg77
g502
sg70
(lp517
g63
(g64
g65
NtRp518
(dp519
g68
(dp520
g76
I3
ssg77
g514
sg70
(lp521
S''
asbasbasbag63
(g79
g65
NtRp522
(dp523
g68
(dp524
sg77
g458
sg70
(lp525
g63
(g84
g65
NtRp526
(dp527
g68
(dp528
g88
g89
ssg77
g522
sg70
(lp529
g340
asbag63
(g84
g65
NtRp530
(dp531
g68
(dp532
g95
g96
ssg77
g522
sg70
(lp533
S':'
asbag63
(g84
g65
NtRp534
(dp535
g68
(dp536
sg77
g522
sg70
(lp537
g63
(g64
g65
NtRp538
(dp539
g68
(dp540
g76
I3
ssg77
g534
sg70
(lp541
S''
asbasbasbag63
(g79
g65
NtRp542
(dp543
g68
(dp544
sg77
g458
sg70
(lp545
g63
(g84
g65
NtRp546
(dp547
g68
(dp548
g88
g89
ssg77
g542
sg70
(lp549
g361
asbag63
(g84
g65
NtRp550
(dp551
g68
(dp552
g95
g96
ssg77
g542
sg70
(lp553
S':'
asbag63
(g84
g65
NtRp554
(dp555
g68
(dp556
sg77
g542
sg70
(lp557
g63
(g64
g65
NtRp558
(dp559
g68
(dp560
g76
I3
ssg77
g554
sg70
(lp561
S''
asbasbasbag63
(g79
g65
NtRp562
(dp563
g68
(dp564
sg77
g458
sg70
(lp565
g63
(g84
g65
NtRp566
(dp567
g68
(dp568
g88
g89
ssg77
g562
sg70
(lp569
g382
asbag63
(g84
g65
NtRp570
(dp571
g68
(dp572
g95
g96
ssg77
g562
sg70
(lp573
S':'
asbag63
(g84
g65
NtRp574
(dp575
g68
(dp576
sg77
g562
sg70
(lp577
g63
(g64
g65
NtRp578
(dp579
g68
(dp580
g76
I3
ssg77
g574
sg70
(lp581
S''
asbasbasbag63
(g79
g65
NtRp582
(dp583
g68
(dp584
sg77
g458
sg70
(lp585
g63
(g84
g65
NtRp586
(dp587
g68
(dp588
g88
g89
ssg77
g582
sg70
(lp589
g403
asbag63
(g84
g65
NtRp590
(dp591
g68
(dp592
g95
g96
ssg77
g582
sg70
(lp593
S':'
asbag63
(g84
g65
NtRp594
(dp595
g68
(dp596
sg77
g582
sg70
(lp597
g63
(g64
g65
NtRp598
(dp599
g68
(dp600
g76
I3
ssg77
g594
sg70
(lp601
S''
asbasbasbag63
(g79
g65
NtRp602
(dp603
g68
(dp604
sg77
g458
sg70
(lp605
g63
(g84
g65
NtRp606
(dp607
g68
(dp608
g88
g89
ssg77
g602
sg70
(lp609
g424
asbag63
(g84
g65
NtRp610
(dp611
g68
(dp612
g95
g96
ssg77
g602
sg70
(lp613
S':'
asbag63
(g84
g65
NtRp614
(dp615
g68
(dp616
sg77
g602
sg70
(lp617
g63
(g64
g65
NtRp618
(dp619
g68
(dp620
g76
I3
ssg77
g614
sg70
(lp621
S''
asbasbasbasbasbasbasbasbasbasbasbag63
(g79
g65
NtRp622
(dp623
g68
(dp624
sg77
g73
sg70
(lp625
g63
(g84
g65
NtRp626
(dp627
g68
(dp628
g88
g89
ssg77
g622
sg70
(lp629
S'env'
p630
asbag63
(g84
g65
NtRp631
(dp632
g68
(dp633
g95
g96
ssg77
g622
sg70
(lp634
S':'
asbag63
(g84
g65
NtRp635
(dp636
g68
(dp637
sg77
g622
sg70
(lp638
g63
(g64
g65
NtRp639
(dp640
g68
(dp641
g76
I5
ssg77
g635
sg70
(lp642
g63
(g72
g65
NtRp643
(dp644
g68
(dp645
g76
I4
ssg77
Nsg70
(lp646
g63
(g79
g65
NtRp647
(dp648
g68
(dp649
sg77
g643
sg70
(lp650
g63
(g84
g65
NtRp651
(dp652
g68
(dp653
g88
g89
ssg77
g647
sg70
(lp654
S'app_folders'
p655
asbag63
(g84
g65
NtRp656
(dp657
g68
(dp658
g95
g96
ssg77
g647
sg70
(lp659
S':'
asbag63
(g84
g65
NtRp660
(dp661
g68
(dp662
sg77
g647
sg70
(lp663
g63
(g64
g65
NtRp664
(dp665
g68
(dp666
g76
I4
ssg77
g660
sg70
(lp667
S"set(['/home/schultzc/workspace/web2py/applications/welcome/', '/home/schultzc/workspace/web2py/applications/mfpdcb/'])"
p668
asbasbasbag63
(g79
g65
NtRp669
(dp670
g68
(dp671
sg77
g643
sg70
(lp672
g63
(g84
g65
NtRp673
(dp674
g68
(dp675
g88
g89
ssg77
g669
sg70
(lp676
S'applications_parent'
p677
asbag63
(g84
g65
NtRp678
(dp679
g68
(dp680
g95
g96
ssg77
g669
sg70
(lp681
S':'
asbag63
(g84
g65
NtRp682
(dp683
g68
(dp684
sg77
g669
sg70
(lp685
g63
(g64
g65
NtRp686
(dp687
g68
(dp688
g76
I4
ssg77
g682
sg70
(lp689
S'/home/schultzc/workspace/web2py'
p690
asbasbasbag63
(g79
g65
NtRp691
(dp692
g68
(dp693
sg77
g643
sg70
(lp694
g63
(g84
g65
NtRp695
(dp696
g68
(dp697
g88
g89
ssg77
g691
sg70
(lp698
S'cmd_args'
p699
asbag63
(g84
g65
NtRp700
(dp701
g68
(dp702
g95
g96
ssg77
g691
sg70
(lp703
S':'
asbag63
(g84
g65
NtRp704
(dp705
g68
(dp706
sg77
g691
sg70
(lp707
g63
(g64
g65
NtRp708
(dp709
g68
(dp710
g76
I4
ssg77
g704
sg70
(lp711
g63
(g72
g65
NtRp712
(dp713
g68
(dp714
g76
I3
ssg77
Nsg70
(lp715
sbasbasbasbag63
(g79
g65
NtRp716
(dp717
g68
(dp718
sg77
g643
sg70
(lp719
g63
(g84
g65
NtRp720
(dp721
g68
(dp722
g88
g89
ssg77
g716
sg70
(lp723
S'cmd_options'
p724
asbag63
(g84
g65
NtRp725
(dp726
g68
(dp727
g95
g96
ssg77
g716
sg70
(lp728
S':'
asbag63
(g84
g65
NtRp729
(dp730
g68
(dp731
sg77
g716
sg70
(lp732
g63
(g64
g65
NtRp733
(dp734
g68
(dp735
g76
I4
ssg77
g729
sg70
(lp736
S"<Values at 0x304b050: {'verbose': False, 'ip': '127.0.0.1', 'shutdown_timeout': 5, 'taskbar': False, 'nocron': False, 'pid_filename': 'httpserver.pid', 'maxthreads': None, 'softcron': False, 'server_name': 'Athena', 'bpython': False, 'nogui': False, 'port': 8000, 'extcron': False, 'debuglevel': 30, 'test': None, 'folder': '/home/schultzc/workspace/web2py', 'config': '', 'import_models': False, 'winservice': '', 'shell': None, 'run': '', 'log_filename': 'httpserver.log', 'args': [''], 'socket_timeout': 1, 'ssl_ca_certificate': None, 'scheduler': None, 'profiler_filename': None, 'ssl_private_key': '', 'password': '<ask>', 'request_queue_size': 5, 'ssl_certificate': '', 'cronjob': False, 'numthreads': None, 'quiet': False, 'interfaces': None, 'minthreads': None, 'timeout': 10, 'plain': False, 'nobanner': False}>"
p737
asbasbasbag63
(g79
g65
NtRp738
(dp739
g68
(dp740
sg77
g643
sg70
(lp741
g63
(g84
g65
NtRp742
(dp743
g68
(dp744
g88
g89
ssg77
g738
sg70
(lp745
S'content_length'
p746
asbag63
(g84
g65
NtRp747
(dp748
g68
(dp749
g95
g96
ssg77
g738
sg70
(lp750
S':'
asbag63
(g84
g65
NtRp751
(dp752
g68
(dp753
sg77
g738
sg70
(lp754
g63
(g64
g65
NtRp755
(dp756
g68
(dp757
g76
I4
ssg77
g751
sg70
(lp758
S'26'
p759
asbasbasbag63
(g79
g65
NtRp760
(dp761
g68
(dp762
sg77
g643
sg70
(lp763
g63
(g84
g65
NtRp764
(dp765
g68
(dp766
g88
g89
ssg77
g760
sg70
(lp767
S'content_type'
p768
asbag63
(g84
g65
NtRp769
(dp770
g68
(dp771
g95
g96
ssg77
g760
sg70
(lp772
S':'
asbag63
(g84
g65
NtRp773
(dp774
g68
(dp775
sg77
g760
sg70
(lp776
g63
(g64
g65
NtRp777
(dp778
g68
(dp779
g76
I4
ssg77
g773
sg70
(lp780
S'application/x-www-form-urlencoded'
p781
asbasbasbag63
(g79
g65
NtRp782
(dp783
g68
(dp784
sg77
g643
sg70
(lp785
g63
(g84
g65
NtRp786
(dp787
g68
(dp788
g88
g89
ssg77
g782
sg70
(lp789
S'db_sessions'
p790
asbag63
(g84
g65
NtRp791
(dp792
g68
(dp793
g95
g96
ssg77
g782
sg70
(lp794
S':'
asbag63
(g84
g65
NtRp795
(dp796
g68
(dp797
sg77
g782
sg70
(lp798
g63
(g64
g65
NtRp799
(dp800
g68
(dp801
g76
I4
ssg77
g795
sg70
(lp802
S'set([])'
p803
asbasbasbag63
(g79
g65
NtRp804
(dp805
g68
(dp806
sg77
g643
sg70
(lp807
g63
(g84
g65
NtRp808
(dp809
g68
(dp810
g88
g89
ssg77
g804
sg70
(lp811
S'debugging'
p812
asbag63
(g84
g65
NtRp813
(dp814
g68
(dp815
g95
g96
ssg77
g804
sg70
(lp816
S':'
asbag63
(g84
g65
NtRp817
(dp818
g68
(dp819
sg77
g804
sg70
(lp820
g63
(g64
g65
NtRp821
(dp822
g68
(dp823
g76
I4
ssg77
g817
sg70
(lp824
S'False'
p825
asbasbasbag63
(g79
g65
NtRp826
(dp827
g68
(dp828
sg77
g643
sg70
(lp829
g63
(g84
g65
NtRp830
(dp831
g68
(dp832
g88
g89
ssg77
g826
sg70
(lp833
S'gluon_parent'
p834
asbag63
(g84
g65
NtRp835
(dp836
g68
(dp837
g95
g96
ssg77
g826
sg70
(lp838
S':'
asbag63
(g84
g65
NtRp839
(dp840
g68
(dp841
sg77
g826
sg70
(lp842
g63
(g64
g65
NtRp843
(dp844
g68
(dp845
g76
I4
ssg77
g839
sg70
(lp846
S'/home/schultzc/workspace/web2py'
p847
asbasbasbag63
(g79
g65
NtRp848
(dp849
g68
(dp850
sg77
g643
sg70
(lp851
g63
(g84
g65
NtRp852
(dp853
g68
(dp854
g88
g89
ssg77
g848
sg70
(lp855
S'http_accept'
p856
asbag63
(g84
g65
NtRp857
(dp858
g68
(dp859
g95
g96
ssg77
g848
sg70
(lp860
S':'
asbag63
(g84
g65
NtRp861
(dp862
g68
(dp863
sg77
g848
sg70
(lp864
g63
(g64
g65
NtRp865
(dp866
g68
(dp867
g76
I4
ssg77
g861
sg70
(lp868
S'*/*'
p869
asbasbasbag63
(g79
g65
NtRp870
(dp871
g68
(dp872
sg77
g643
sg70
(lp873
g63
(g84
g65
NtRp874
(dp875
g68
(dp876
g88
g89
ssg77
g870
sg70
(lp877
S'http_accept_charset'
p878
asbag63
(g84
g65
NtRp879
(dp880
g68
(dp881
g95
g96
ssg77
g870
sg70
(lp882
S':'
asbag63
(g84
g65
NtRp883
(dp884
g68
(dp885
sg77
g870
sg70
(lp886
g63
(g64
g65
NtRp887
(dp888
g68
(dp889
g76
I4
ssg77
g883
sg70
(lp890
S'ISO-8859-1,utf-8;q=0.7,*;q=0.3'
p891
asbasbasbag63
(g79
g65
NtRp892
(dp893
g68
(dp894
sg77
g643
sg70
(lp895
g63
(g84
g65
NtRp896
(dp897
g68
(dp898
g88
g89
ssg77
g892
sg70
(lp899
S'http_accept_encoding'
p900
asbag63
(g84
g65
NtRp901
(dp902
g68
(dp903
g95
g96
ssg77
g892
sg70
(lp904
S':'
asbag63
(g84
g65
NtRp905
(dp906
g68
(dp907
sg77
g892
sg70
(lp908
g63
(g64
g65
NtRp909
(dp910
g68
(dp911
g76
I4
ssg77
g905
sg70
(lp912
S'gzip,deflate,sdch'
p913
asbasbasbag63
(g79
g65
NtRp914
(dp915
g68
(dp916
sg77
g643
sg70
(lp917
g63
(g84
g65
NtRp918
(dp919
g68
(dp920
g88
g89
ssg77
g914
sg70
(lp921
S'http_accept_language'
p922
asbag63
(g84
g65
NtRp923
(dp924
g68
(dp925
g95
g96
ssg77
g914
sg70
(lp926
S':'
asbag63
(g84
g65
NtRp927
(dp928
g68
(dp929
sg77
g914
sg70
(lp930
g63
(g64
g65
NtRp931
(dp932
g68
(dp933
g76
I4
ssg77
g927
sg70
(lp934
S'en-US,en;q=0.8'
p935
asbasbasbag63
(g79
g65
NtRp936
(dp937
g68
(dp938
sg77
g643
sg70
(lp939
g63
(g84
g65
NtRp940
(dp941
g68
(dp942
g88
g89
ssg77
g936
sg70
(lp943
S'http_connection'
p944
asbag63
(g84
g65
NtRp945
(dp946
g68
(dp947
g95
g96
ssg77
g936
sg70
(lp948
S':'
asbag63
(g84
g65
NtRp949
(dp950
g68
(dp951
sg77
g936
sg70
(lp952
g63
(g64
g65
NtRp953
(dp954
g68
(dp955
g76
I4
ssg77
g949
sg70
(lp956
S'keep-alive'
p957
asbasbasbag63
(g79
g65
NtRp958
(dp959
g68
(dp960
sg77
g643
sg70
(lp961
g63
(g84
g65
NtRp962
(dp963
g68
(dp964
g88
g89
ssg77
g958
sg70
(lp965
S'http_content_length'
p966
asbag63
(g84
g65
NtRp967
(dp968
g68
(dp969
g95
g96
ssg77
g958
sg70
(lp970
S':'
asbag63
(g84
g65
NtRp971
(dp972
g68
(dp973
sg77
g958
sg70
(lp974
g63
(g64
g65
NtRp975
(dp976
g68
(dp977
g76
I4
ssg77
g971
sg70
(lp978
g759
asbasbasbag63
(g79
g65
NtRp979
(dp980
g68
(dp981
sg77
g643
sg70
(lp982
g63
(g84
g65
NtRp983
(dp984
g68
(dp985
g88
g89
ssg77
g979
sg70
(lp986
S'http_content_type'
p987
asbag63
(g84
g65
NtRp988
(dp989
g68
(dp990
g95
g96
ssg77
g979
sg70
(lp991
S':'
asbag63
(g84
g65
NtRp992
(dp993
g68
(dp994
sg77
g979
sg70
(lp995
g63
(g64
g65
NtRp996
(dp997
g68
(dp998
g76
I4
ssg77
g992
sg70
(lp999
g781
asbasbasbag63
(g79
g65
NtRp1000
(dp1001
g68
(dp1002
sg77
g643
sg70
(lp1003
g63
(g84
g65
NtRp1004
(dp1005
g68
(dp1006
g88
g89
ssg77
g1000
sg70
(lp1007
S'http_cookie'
p1008
asbag63
(g84
g65
NtRp1009
(dp1010
g68
(dp1011
g95
g96
ssg77
g1000
sg70
(lp1012
S':'
asbag63
(g84
g65
NtRp1013
(dp1014
g68
(dp1015
sg77
g1000
sg70
(lp1016
g63
(g64
g65
NtRp1017
(dp1018
g68
(dp1019
g76
I4
ssg77
g1013
sg70
(lp1020
S'session_id_welcome=127.0.0.1-434e6c4f-4ecf-4078-a38e-8c10a4e6e77a; session_id_mfpdcb=127.0.0.1-29bfd18c-5226-4a49-ab33-5b65a9b0af5a'
p1021
asbasbasbag63
(g79
g65
NtRp1022
(dp1023
g68
(dp1024
sg77
g643
sg70
(lp1025
g63
(g84
g65
NtRp1026
(dp1027
g68
(dp1028
g88
g89
ssg77
g1022
sg70
(lp1029
S'http_host'
p1030
asbag63
(g84
g65
NtRp1031
(dp1032
g68
(dp1033
g95
g96
ssg77
g1022
sg70
(lp1034
S':'
asbag63
(g84
g65
NtRp1035
(dp1036
g68
(dp1037
sg77
g1022
sg70
(lp1038
g63
(g64
g65
NtRp1039
(dp1040
g68
(dp1041
g76
I4
ssg77
g1035
sg70
(lp1042
S'127.0.0.1:8000'
p1043
asbasbasbag63
(g79
g65
NtRp1044
(dp1045
g68
(dp1046
sg77
g643
sg70
(lp1047
g63
(g84
g65
NtRp1048
(dp1049
g68
(dp1050
g88
g89
ssg77
g1044
sg70
(lp1051
S'http_origin'
p1052
asbag63
(g84
g65
NtRp1053
(dp1054
g68
(dp1055
g95
g96
ssg77
g1044
sg70
(lp1056
S':'
asbag63
(g84
g65
NtRp1057
(dp1058
g68
(dp1059
sg77
g1044
sg70
(lp1060
g63
(g64
g65
NtRp1061
(dp1062
g68
(dp1063
g76
I4
ssg77
g1057
sg70
(lp1064
S'http://127.0.0.1:8000'
p1065
asbasbasbag63
(g79
g65
NtRp1066
(dp1067
g68
(dp1068
sg77
g643
sg70
(lp1069
g63
(g84
g65
NtRp1070
(dp1071
g68
(dp1072
g88
g89
ssg77
g1066
sg70
(lp1073
S'http_referer'
p1074
asbag63
(g84
g65
NtRp1075
(dp1076
g68
(dp1077
g95
g96
ssg77
g1066
sg70
(lp1078
S':'
asbag63
(g84
g65
NtRp1079
(dp1080
g68
(dp1081
sg77
g1066
sg70
(lp1082
g63
(g64
g65
NtRp1083
(dp1084
g68
(dp1085
g76
I4
ssg77
g1079
sg70
(lp1086
S'http://127.0.0.1:8000/mfpdcb/default/machines'
p1087
asbasbasbag63
(g79
g65
NtRp1088
(dp1089
g68
(dp1090
sg77
g643
sg70
(lp1091
g63
(g84
g65
NtRp1092
(dp1093
g68
(dp1094
g88
g89
ssg77
g1088
sg70
(lp1095
S'http_user_agent'
p1096
asbag63
(g84
g65
NtRp1097
(dp1098
g68
(dp1099
g95
g96
ssg77
g1088
sg70
(lp1100
S':'
asbag63
(g84
g65
NtRp1101
(dp1102
g68
(dp1103
sg77
g1088
sg70
(lp1104
g63
(g64
g65
NtRp1105
(dp1106
g68
(dp1107
g76
I4
ssg77
g1101
sg70
(lp1108
S'Mozilla/5.0 (X11; Linux x86_64) AppleWebKit/535.11 (KHTML, like Gecko) Chrome/17.0.963.78 Safari/535.11'
p1109
asbasbasbag63
(g79
g65
NtRp1110
(dp1111
g68
(dp1112
sg77
g643
sg70
(lp1113
g63
(g84
g65
NtRp1114
(dp1115
g68
(dp1116
g88
g89
ssg77
g1110
sg70
(lp1117
S'http_x_requested_with'
p1118
asbag63
(g84
g65
NtRp1119
(dp1120
g68
(dp1121
g95
g96
ssg77
g1110
sg70
(lp1122
S':'
asbag63
(g84
g65
NtRp1123
(dp1124
g68
(dp1125
sg77
g1110
sg70
(lp1126
g63
(g64
g65
NtRp1127
(dp1128
g68
(dp1129
g76
I4
ssg77
g1123
sg70
(lp1130
S'XMLHttpRequest'
p1131
asbasbasbag63
(g79
g65
NtRp1132
(dp1133
g68
(dp1134
sg77
g643
sg70
(lp1135
g63
(g84
g65
NtRp1136
(dp1137
g68
(dp1138
g88
g89
ssg77
g1132
sg70
(lp1139
S'is_jython'
p1140
asbag63
(g84
g65
NtRp1141
(dp1142
g68
(dp1143
g95
g96
ssg77
g1132
sg70
(lp1144
S':'
asbag63
(g84
g65
NtRp1145
(dp1146
g68
(dp1147
sg77
g1132
sg70
(lp1148
g63
(g64
g65
NtRp1149
(dp1150
g68
(dp1151
g76
I4
ssg77
g1145
sg70
(lp1152
g825
asbasbasbag63
(g79
g65
NtRp1153
(dp1154
g68
(dp1155
sg77
g643
sg70
(lp1156
g63
(g84
g65
NtRp1157
(dp1158
g68
(dp1159
g88
g89
ssg77
g1153
sg70
(lp1160
S'is_pypy'
p1161
asbag63
(g84
g65
NtRp1162
(dp1163
g68
(dp1164
g95
g96
ssg77
g1153
sg70
(lp1165
S':'
asbag63
(g84
g65
NtRp1166
(dp1167
g68
(dp1168
sg77
g1153
sg70
(lp1169
g63
(g64
g65
NtRp1170
(dp1171
g68
(dp1172
g76
I4
ssg77
g1166
sg70
(lp1173
g825
asbasbasbag63
(g79
g65
NtRp1174
(dp1175
g68
(dp1176
sg77
g643
sg70
(lp1177
g63
(g84
g65
NtRp1178
(dp1179
g68
(dp1180
g88
g89
ssg77
g1174
sg70
(lp1181
S'path_info'
p1182
asbag63
(g84
g65
NtRp1183
(dp1184
g68
(dp1185
g95
g96
ssg77
g1174
sg70
(lp1186
S':'
asbag63
(g84
g65
NtRp1187
(dp1188
g68
(dp1189
sg77
g1174
sg70
(lp1190
g63
(g64
g65
NtRp1191
(dp1192
g68
(dp1193
g76
I4
ssg77
g1187
sg70
(lp1194
S'/mfpdcb/default/ajaxproxy'
p1195
asbasbasbag63
(g79
g65
NtRp1196
(dp1197
g68
(dp1198
sg77
g643
sg70
(lp1199
g63
(g84
g65
NtRp1200
(dp1201
g68
(dp1202
g88
g89
ssg77
g1196
sg70
(lp1203
S'query_string'
p1204
asbag63
(g84
g65
NtRp1205
(dp1206
g68
(dp1207
g95
g96
ssg77
g1196
sg70
(lp1208
S':'
asbag63
(g84
g65
NtRp1209
(dp1210
g68
(dp1211
sg77
g1196
sg70
(lp1212
g63
(g64
g65
NtRp1213
(dp1214
g68
(dp1215
g76
I4
ssg77
g1209
sg70
(lp1216
S''
asbasbasbag63
(g79
g65
NtRp1217
(dp1218
g68
(dp1219
sg77
g643
sg70
(lp1220
g63
(g84
g65
NtRp1221
(dp1222
g68
(dp1223
g88
g89
ssg77
g1217
sg70
(lp1224
S'remote_addr'
p1225
asbag63
(g84
g65
NtRp1226
(dp1227
g68
(dp1228
g95
g96
ssg77
g1217
sg70
(lp1229
S':'
asbag63
(g84
g65
NtRp1230
(dp1231
g68
(dp1232
sg77
g1217
sg70
(lp1233
g63
(g64
g65
NtRp1234
(dp1235
g68
(dp1236
g76
I4
ssg77
g1230
sg70
(lp1237
g196
asbasbasbag63
(g79
g65
NtRp1238
(dp1239
g68
(dp1240
sg77
g643
sg70
(lp1241
g63
(g84
g65
NtRp1242
(dp1243
g68
(dp1244
g88
g89
ssg77
g1238
sg70
(lp1245
S'remote_port'
p1246
asbag63
(g84
g65
NtRp1247
(dp1248
g68
(dp1249
g95
g96
ssg77
g1238
sg70
(lp1250
S':'
asbag63
(g84
g65
NtRp1251
(dp1252
g68
(dp1253
sg77
g1238
sg70
(lp1254
g63
(g64
g65
NtRp1255
(dp1256
g68
(dp1257
g76
I4
ssg77
g1251
sg70
(lp1258
S'36394'
p1259
asbasbasbag63
(g79
g65
NtRp1260
(dp1261
g68
(dp1262
sg77
g643
sg70
(lp1263
g63
(g84
g65
NtRp1264
(dp1265
g68
(dp1266
g88
g89
ssg77
g1260
sg70
(lp1267
S'request_method'
p1268
asbag63
(g84
g65
NtRp1269
(dp1270
g68
(dp1271
g95
g96
ssg77
g1260
sg70
(lp1272
S':'
asbag63
(g84
g65
NtRp1273
(dp1274
g68
(dp1275
sg77
g1260
sg70
(lp1276
g63
(g64
g65
NtRp1277
(dp1278
g68
(dp1279
g76
I4
ssg77
g1273
sg70
(lp1280
S'POST'
p1281
asbasbasbag63
(g79
g65
NtRp1282
(dp1283
g68
(dp1284
sg77
g643
sg70
(lp1285
g63
(g84
g65
NtRp1286
(dp1287
g68
(dp1288
g88
g89
ssg77
g1282
sg70
(lp1289
S'script_name'
p1290
asbag63
(g84
g65
NtRp1291
(dp1292
g68
(dp1293
g95
g96
ssg77
g1282
sg70
(lp1294
S':'
asbag63
(g84
g65
NtRp1295
(dp1296
g68
(dp1297
sg77
g1282
sg70
(lp1298
g63
(g64
g65
NtRp1299
(dp1300
g68
(dp1301
g76
I4
ssg77
g1295
sg70
(lp1302
S''
asbasbasbag63
(g79
g65
NtRp1303
(dp1304
g68
(dp1305
sg77
g643
sg70
(lp1306
g63
(g84
g65
NtRp1307
(dp1308
g68
(dp1309
g88
g89
ssg77
g1303
sg70
(lp1310
S'server_name'
p1311
asbag63
(g84
g65
NtRp1312
(dp1313
g68
(dp1314
g95
g96
ssg77
g1303
sg70
(lp1315
S':'
asbag63
(g84
g65
NtRp1316
(dp1317
g68
(dp1318
sg77
g1303
sg70
(lp1319
g63
(g64
g65
NtRp1320
(dp1321
g68
(dp1322
g76
I4
ssg77
g1316
sg70
(lp1323
S'Athena'
p1324
asbasbasbag63
(g79
g65
NtRp1325
(dp1326
g68
(dp1327
sg77
g643
sg70
(lp1328
g63
(g84
g65
NtRp1329
(dp1330
g68
(dp1331
g88
g89
ssg77
g1325
sg70
(lp1332
S'server_port'
p1333
asbag63
(g84
g65
NtRp1334
(dp1335
g68
(dp1336
g95
g96
ssg77
g1325
sg70
(lp1337
S':'
asbag63
(g84
g65
NtRp1338
(dp1339
g68
(dp1340
sg77
g1325
sg70
(lp1341
g63
(g64
g65
NtRp1342
(dp1343
g68
(dp1344
g76
I4
ssg77
g1338
sg70
(lp1345
S'8000'
p1346
asbasbasbag63
(g79
g65
NtRp1347
(dp1348
g68
(dp1349
sg77
g643
sg70
(lp1350
g63
(g84
g65
NtRp1351
(dp1352
g68
(dp1353
g88
g89
ssg77
g1347
sg70
(lp1354
S'server_protocol'
p1355
asbag63
(g84
g65
NtRp1356
(dp1357
g68
(dp1358
g95
g96
ssg77
g1347
sg70
(lp1359
S':'
asbag63
(g84
g65
NtRp1360
(dp1361
g68
(dp1362
sg77
g1347
sg70
(lp1363
g63
(g64
g65
NtRp1364
(dp1365
g68
(dp1366
g76
I4
ssg77
g1360
sg70
(lp1367
S'HTTP/1.1'
p1368
asbasbasbag63
(g79
g65
NtRp1369
(dp1370
g68
(dp1371
sg77
g643
sg70
(lp1372
g63
(g84
g65
NtRp1373
(dp1374
g68
(dp1375
g88
g89
ssg77
g1369
sg70
(lp1376
S'server_software'
p1377
asbag63
(g84
g65
NtRp1378
(dp1379
g68
(dp1380
g95
g96
ssg77
g1369
sg70
(lp1381
S':'
asbag63
(g84
g65
NtRp1382
(dp1383
g68
(dp1384
sg77
g1369
sg70
(lp1385
g63
(g64
g65
NtRp1386
(dp1387
g68
(dp1388
g76
I4
ssg77
g1382
sg70
(lp1389
S'Rocket 1.2.4'
p1390
asbasbasbag63
(g79
g65
NtRp1391
(dp1392
g68
(dp1393
sg77
g643
sg70
(lp1394
g63
(g84
g65
NtRp1395
(dp1396
g68
(dp1397
g88
g89
ssg77
g1391
sg70
(lp1398
S'web2py_crontype'
p1399
asbag63
(g84
g65
NtRp1400
(dp1401
g68
(dp1402
g95
g96
ssg77
g1391
sg70
(lp1403
S':'
asbag63
(g84
g65
NtRp1404
(dp1405
g68
(dp1406
sg77
g1391
sg70
(lp1407
g63
(g64
g65
NtRp1408
(dp1409
g68
(dp1410
g76
I4
ssg77
g1404
sg70
(lp1411
S'hard'
p1412
asbasbasbag63
(g79
g65
NtRp1413
(dp1414
g68
(dp1415
sg77
g643
sg70
(lp1416
g63
(g84
g65
NtRp1417
(dp1418
g68
(dp1419
g88
g89
ssg77
g1413
sg70
(lp1420
S'web2py_path'
p1421
asbag63
(g84
g65
NtRp1422
(dp1423
g68
(dp1424
g95
g96
ssg77
g1413
sg70
(lp1425
S':'
asbag63
(g84
g65
NtRp1426
(dp1427
g68
(dp1428
sg77
g1413
sg70
(lp1429
g63
(g64
g65
NtRp1430
(dp1431
g68
(dp1432
g76
I4
ssg77
g1426
sg70
(lp1433
g690
asbasbasbag63
(g79
g65
NtRp1434
(dp1435
g68
(dp1436
sg77
g643
sg70
(lp1437
g63
(g84
g65
NtRp1438
(dp1439
g68
(dp1440
g88
g89
ssg77
g1434
sg70
(lp1441
S'web2py_version'
p1442
asbag63
(g84
g65
NtRp1443
(dp1444
g68
(dp1445
g95
g96
ssg77
g1434
sg70
(lp1446
S':'
asbag63
(g84
g65
NtRp1447
(dp1448
g68
(dp1449
sg77
g1434
sg70
(lp1450
g63
(g64
g65
NtRp1451
(dp1452
g68
(dp1453
g76
I4
ssg77
g1447
sg70
(lp1454
g63
(g72
g65
NtRp1455
(dp1456
g68
(dp1457
g76
I3
ssg77
Nsg70
(lp1458
g63
(g79
g65
NtRp1459
(dp1460
g68
(dp1461
sg77
g1455
sg70
(lp1462
g63
(g84
g65
NtRp1463
(dp1464
g68
(dp1465
sg77
g1459
sg70
(lp1466
g63
(g64
g65
NtRp1467
(dp1468
g68
(dp1469
g76
I3
ssg77
g1463
sg70
(lp1470
S'1'
asbasbasbag63
(g79
g65
NtRp1471
(dp1472
g68
(dp1473
sg77
g1455
sg70
(lp1474
g63
(g84
g65
NtRp1475
(dp1476
g68
(dp1477
sg77
g1471
sg70
(lp1478
g63
(g64
g65
NtRp1479
(dp1480
g68
(dp1481
g76
I3
ssg77
g1475
sg70
(lp1482
S'99'
p1483
asbasbasbag63
(g79
g65
NtRp1484
(dp1485
g68
(dp1486
sg77
g1455
sg70
(lp1487
g63
(g84
g65
NtRp1488
(dp1489
g68
(dp1490
sg77
g1484
sg70
(lp1491
g63
(g64
g65
NtRp1492
(dp1493
g68
(dp1494
g76
I3
ssg77
g1488
sg70
(lp1495
S'4'
asbasbasbag63
(g79
g65
NtRp1496
(dp1497
g68
(dp1498
sg77
g1455
sg70
(lp1499
g63
(g84
g65
NtRp1500
(dp1501
g68
(dp1502
sg77
g1496
sg70
(lp1503
g63
(g64
g65
NtRp1504
(dp1505
g68
(dp1506
g76
I3
ssg77
g1500
sg70
(lp1507
S'datetime.datetime(2011, 12, 14, 14, 46, 14)'
p1508
asbasbasbag63
(g79
g65
NtRp1509
(dp1510
g68
(dp1511
sg77
g1455
sg70
(lp1512
g63
(g84
g65
NtRp1513
(dp1514
g68
(dp1515
sg77
g1509
sg70
(lp1516
g63
(g64
g65
NtRp1517
(dp1518
g68
(dp1519
g76
I3
ssg77
g1513
sg70
(lp1520
S'stable'
p1521
asbasbasbasbasbasbasbag63
(g79
g65
NtRp1522
(dp1523
g68
(dp1524
sg77
g643
sg70
(lp1525
g63
(g84
g65
NtRp1526
(dp1527
g68
(dp1528
g88
g89
ssg77
g1522
sg70
(lp1529
S'wsgi_errors'
p1530
asbag63
(g84
g65
NtRp1531
(dp1532
g68
(dp1533
g95
g96
ssg77
g1522
sg70
(lp1534
S':'
asbag63
(g84
g65
NtRp1535
(dp1536
g68
(dp1537
sg77
g1522
sg70
(lp1538
g63
(g64
g65
NtRp1539
(dp1540
g68
(dp1541
g76
I4
ssg77
g1535
sg70
(lp1542
S"<open file '<stderr>', mode 'w' at 0x7f3684ea8270>"
p1543
asbasbasbag63
(g79
g65
NtRp1544
(dp1545
g68
(dp1546
sg77
g643
sg70
(lp1547
g63
(g84
g65
NtRp1548
(dp1549
g68
(dp1550
g88
g89
ssg77
g1544
sg70
(lp1551
S'wsgi_file_wrapper'
p1552
asbag63
(g84
g65
NtRp1553
(dp1554
g68
(dp1555
g95
g96
ssg77
g1544
sg70
(lp1556
S':'
asbag63
(g84
g65
NtRp1557
(dp1558
g68
(dp1559
sg77
g1544
sg70
(lp1560
g63
(g64
g65
NtRp1561
(dp1562
g68
(dp1563
g76
I4
ssg77
g1557
sg70
(lp1564
S'<class wsgiref.util.FileWrapper at 0x2f27808>'
p1565
asbasbasbag63
(g79
g65
NtRp1566
(dp1567
g68
(dp1568
sg77
g643
sg70
(lp1569
g63
(g84
g65
NtRp1570
(dp1571
g68
(dp1572
g88
g89
ssg77
g1566
sg70
(lp1573
S'wsgi_input'
p1574
asbag63
(g84
g65
NtRp1575
(dp1576
g68
(dp1577
g95
g96
ssg77
g1566
sg70
(lp1578
S':'
asbag63
(g84
g65
NtRp1579
(dp1580
g68
(dp1581
sg77
g1566
sg70
(lp1582
g63
(g64
g65
NtRp1583
(dp1584
g68
(dp1585
g76
I4
ssg77
g1579
sg70
(lp1586
S'<socket._fileobject object at 0x365d2d0>'
p1587
asbasbasbag63
(g79
g65
NtRp1588
(dp1589
g68
(dp1590
sg77
g643
sg70
(lp1591
g63
(g84
g65
NtRp1592
(dp1593
g68
(dp1594
g88
g89
ssg77
g1588
sg70
(lp1595
S'wsgi_multiprocess'
p1596
asbag63
(g84
g65
NtRp1597
(dp1598
g68
(dp1599
g95
g96
ssg77
g1588
sg70
(lp1600
S':'
asbag63
(g84
g65
NtRp1601
(dp1602
g68
(dp1603
sg77
g1588
sg70
(lp1604
g63
(g64
g65
NtRp1605
(dp1606
g68
(dp1607
g76
I4
ssg77
g1601
sg70
(lp1608
g825
asbasbasbag63
(g79
g65
NtRp1609
(dp1610
g68
(dp1611
sg77
g643
sg70
(lp1612
g63
(g84
g65
NtRp1613
(dp1614
g68
(dp1615
g88
g89
ssg77
g1609
sg70
(lp1616
S'wsgi_multithread'
p1617
asbag63
(g84
g65
NtRp1618
(dp1619
g68
(dp1620
g95
g96
ssg77
g1609
sg70
(lp1621
S':'
asbag63
(g84
g65
NtRp1622
(dp1623
g68
(dp1624
sg77
g1609
sg70
(lp1625
g63
(g64
g65
NtRp1626
(dp1627
g68
(dp1628
g76
I4
ssg77
g1622
sg70
(lp1629
g106
asbasbasbag63
(g79
g65
NtRp1630
(dp1631
g68
(dp1632
sg77
g643
sg70
(lp1633
g63
(g84
g65
NtRp1634
(dp1635
g68
(dp1636
g88
g89
ssg77
g1630
sg70
(lp1637
S'wsgi_run_once'
p1638
asbag63
(g84
g65
NtRp1639
(dp1640
g68
(dp1641
g95
g96
ssg77
g1630
sg70
(lp1642
S':'
asbag63
(g84
g65
NtRp1643
(dp1644
g68
(dp1645
sg77
g1630
sg70
(lp1646
g63
(g64
g65
NtRp1647
(dp1648
g68
(dp1649
g76
I4
ssg77
g1643
sg70
(lp1650
g825
asbasbasbag63
(g79
g65
NtRp1651
(dp1652
g68
(dp1653
sg77
g643
sg70
(lp1654
g63
(g84
g65
NtRp1655
(dp1656
g68
(dp1657
g88
g89
ssg77
g1651
sg70
(lp1658
S'wsgi_url_scheme'
p1659
asbag63
(g84
g65
NtRp1660
(dp1661
g68
(dp1662
g95
g96
ssg77
g1651
sg70
(lp1663
S':'
asbag63
(g84
g65
NtRp1664
(dp1665
g68
(dp1666
sg77
g1651
sg70
(lp1667
g63
(g64
g65
NtRp1668
(dp1669
g68
(dp1670
g76
I4
ssg77
g1664
sg70
(lp1671
S'http'
p1672
asbasbasbag63
(g79
g65
NtRp1673
(dp1674
g68
(dp1675
sg77
g643
sg70
(lp1676
g63
(g84
g65
NtRp1677
(dp1678
g68
(dp1679
g88
g89
ssg77
g1673
sg70
(lp1680
S'wsgi_version'
p1681
asbag63
(g84
g65
NtRp1682
(dp1683
g68
(dp1684
g95
g96
ssg77
g1673
sg70
(lp1685
S':'
asbag63
(g84
g65
NtRp1686
(dp1687
g68
(dp1688
sg77
g1673
sg70
(lp1689
g63
(g64
g65
NtRp1690
(dp1691
g68
(dp1692
g76
I4
ssg77
g1686
sg70
(lp1693
g63
(g72
g65
NtRp1694
(dp1695
g68
(dp1696
g76
I3
ssg77
Nsg70
(lp1697
g63
(g79
g65
NtRp1698
(dp1699
g68
(dp1700
sg77
g1694
sg70
(lp1701
g63
(g84
g65
NtRp1702
(dp1703
g68
(dp1704
sg77
g1698
sg70
(lp1705
g63
(g64
g65
NtRp1706
(dp1707
g68
(dp1708
g76
I3
ssg77
g1702
sg70
(lp1709
S'1'
asbasbasbag63
(g79
g65
NtRp1710
(dp1711
g68
(dp1712
sg77
g1694
sg70
(lp1713
g63
(g84
g65
NtRp1714
(dp1715
g68
(dp1716
sg77
g1710
sg70
(lp1717
g63
(g64
g65
NtRp1718
(dp1719
g68
(dp1720
g76
I3
ssg77
g1714
sg70
(lp1721
S'0'
asbasbasbasbasbasbasbasbasbasbasbag63
(g79
g65
NtRp1722
(dp1723
g68
(dp1724
sg77
g73
sg70
(lp1725
g63
(g84
g65
NtRp1726
(dp1727
g68
(dp1728
g88
g89
ssg77
g1722
sg70
(lp1729
S'extension'
p1730
asbag63
(g84
g65
NtRp1731
(dp1732
g68
(dp1733
g95
g96
ssg77
g1722
sg70
(lp1734
S':'
asbag63
(g84
g65
NtRp1735
(dp1736
g68
(dp1737
sg77
g1722
sg70
(lp1738
g63
(g64
g65
NtRp1739
(dp1740
g68
(dp1741
g76
I5
ssg77
g1735
sg70
(lp1742
S'html'
p1743
asbasbasbag63
(g79
g65
NtRp1744
(dp1745
g68
(dp1746
sg77
g73
sg70
(lp1747
g63
(g84
g65
NtRp1748
(dp1749
g68
(dp1750
g88
g89
ssg77
g1744
sg70
(lp1751
S'folder'
p1752
asbag63
(g84
g65
NtRp1753
(dp1754
g68
(dp1755
g95
g96
ssg77
g1744
sg70
(lp1756
S':'
asbag63
(g84
g65
NtRp1757
(dp1758
g68
(dp1759
sg77
g1744
sg70
(lp1760
g63
(g64
g65
NtRp1761
(dp1762
g68
(dp1763
g76
I5
ssg77
g1757
sg70
(lp1764
S'/home/schultzc/workspace/web2py/applications/mfpdcb/'
p1765
asbasbasbag63
(g79
g65
NtRp1766
(dp1767
g68
(dp1768
sg77
g73
sg70
(lp1769
g63
(g84
g65
NtRp1770
(dp1771
g68
(dp1772
g88
g89
ssg77
g1766
sg70
(lp1773
S'function'
p1774
asbag63
(g84
g65
NtRp1775
(dp1776
g68
(dp1777
g95
g96
ssg77
g1766
sg70
(lp1778
S':'
asbag63
(g84
g65
NtRp1779
(dp1780
g68
(dp1781
sg77
g1766
sg70
(lp1782
g63
(g64
g65
NtRp1783
(dp1784
g68
(dp1785
g76
I5
ssg77
g1779
sg70
(lp1786
S'ajaxproxy'
p1787
asbasbasbag63
(g79
g65
NtRp1788
(dp1789
g68
(dp1790
sg77
g73
sg70
(lp1791
g63
(g84
g65
NtRp1792
(dp1793
g68
(dp1794
g88
g89
ssg77
g1788
sg70
(lp1795
S'get_vars'
p1796
asbag63
(g84
g65
NtRp1797
(dp1798
g68
(dp1799
g95
g96
ssg77
g1788
sg70
(lp1800
S':'
asbag63
(g84
g65
NtRp1801
(dp1802
g68
(dp1803
sg77
g1788
sg70
(lp1804
g63
(g64
g65
NtRp1805
(dp1806
g68
(dp1807
g76
I5
ssg77
g1801
sg70
(lp1808
g63
(g72
g65
NtRp1809
(dp1810
g68
(dp1811
g76
I4
ssg77
Nsg70
(lp1812
sbasbasbasbag63
(g79
g65
NtRp1813
(dp1814
g68
(dp1815
sg77
g73
sg70
(lp1816
g63
(g84
g65
NtRp1817
(dp1818
g68
(dp1819
g88
g89
ssg77
g1813
sg70
(lp1820
S'global_settings'
p1821
asbag63
(g84
g65
NtRp1822
(dp1823
g68
(dp1824
g95
g96
ssg77
g1813
sg70
(lp1825
S':'
asbag63
(g84
g65
NtRp1826
(dp1827
g68
(dp1828
sg77
g1813
sg70
(lp1829
g63
(g64
g65
NtRp1830
(dp1831
g68
(dp1832
g76
I5
ssg77
g1826
sg70
(lp1833
g63
(g72
g65
NtRp1834
(dp1835
g68
(dp1836
g76
I4
ssg77
Nsg70
(lp1837
g63
(g79
g65
NtRp1838
(dp1839
g68
(dp1840
sg77
g1834
sg70
(lp1841
g63
(g84
g65
NtRp1842
(dp1843
g68
(dp1844
g88
g89
ssg77
g1838
sg70
(lp1845
g655
asbag63
(g84
g65
NtRp1846
(dp1847
g68
(dp1848
g95
g96
ssg77
g1838
sg70
(lp1849
S':'
asbag63
(g84
g65
NtRp1850
(dp1851
g68
(dp1852
sg77
g1838
sg70
(lp1853
g63
(g64
g65
NtRp1854
(dp1855
g68
(dp1856
g76
I4
ssg77
g1850
sg70
(lp1857
S"set(['/home/schultzc/workspace/web2py/applications/welcome/', '/home/schultzc/workspace/web2py/applications/mfpdcb/'])"
p1858
asbasbasbag63
(g79
g65
NtRp1859
(dp1860
g68
(dp1861
sg77
g1834
sg70
(lp1862
g63
(g84
g65
NtRp1863
(dp1864
g68
(dp1865
g88
g89
ssg77
g1859
sg70
(lp1866
g677
asbag63
(g84
g65
NtRp1867
(dp1868
g68
(dp1869
g95
g96
ssg77
g1859
sg70
(lp1870
S':'
asbag63
(g84
g65
NtRp1871
(dp1872
g68
(dp1873
sg77
g1859
sg70
(lp1874
g63
(g64
g65
NtRp1875
(dp1876
g68
(dp1877
g76
I4
ssg77
g1871
sg70
(lp1878
g690
asbasbasbag63
(g79
g65
NtRp1879
(dp1880
g68
(dp1881
sg77
g1834
sg70
(lp1882
g63
(g84
g65
NtRp1883
(dp1884
g68
(dp1885
g88
g89
ssg77
g1879
sg70
(lp1886
g699
asbag63
(g84
g65
NtRp1887
(dp1888
g68
(dp1889
g95
g96
ssg77
g1879
sg70
(lp1890
S':'
asbag63
(g84
g65
NtRp1891
(dp1892
g68
(dp1893
sg77
g1879
sg70
(lp1894
g63
(g64
g65
NtRp1895
(dp1896
g68
(dp1897
g76
I4
ssg77
g1891
sg70
(lp1898
g63
(g72
g65
NtRp1899
(dp1900
g68
(dp1901
g76
I3
ssg77
Nsg70
(lp1902
sbasbasbasbag63
(g79
g65
NtRp1903
(dp1904
g68
(dp1905
sg77
g1834
sg70
(lp1906
g63
(g84
g65
NtRp1907
(dp1908
g68
(dp1909
g88
g89
ssg77
g1903
sg70
(lp1910
g724
asbag63
(g84
g65
NtRp1911
(dp1912
g68
(dp1913
g95
g96
ssg77
g1903
sg70
(lp1914
S':'
asbag63
(g84
g65
NtRp1915
(dp1916
g68
(dp1917
sg77
g1903
sg70
(lp1918
g63
(g64
g65
NtRp1919
(dp1920
g68
(dp1921
g76
I4
ssg77
g1915
sg70
(lp1922
S"<Values at 0x304b050: {'verbose': False, 'ip': '127.0.0.1', 'shutdown_timeout': 5, 'taskbar': False, 'nocron': False, 'pid_filename': 'httpserver.pid', 'maxthreads': None, 'softcron': False, 'server_name': 'Athena', 'bpython': False, 'nogui': False, 'port': 8000, 'extcron': False, 'debuglevel': 30, 'test': None, 'folder': '/home/schultzc/workspace/web2py', 'config': '', 'import_models': False, 'winservice': '', 'shell': None, 'run': '', 'log_filename': 'httpserver.log', 'args': [''], 'socket_timeout': 1, 'ssl_ca_certificate': None, 'scheduler': None, 'profiler_filename': None, 'ssl_private_key': '', 'password': '<ask>', 'request_queue_size': 5, 'ssl_certificate': '', 'cronjob': False, 'numthreads': None, 'quiet': False, 'interfaces': None, 'minthreads': None, 'timeout': 10, 'plain': False, 'nobanner': False}>"
p1923
asbasbasbag63
(g79
g65
NtRp1924
(dp1925
g68
(dp1926
sg77
g1834
sg70
(lp1927
g63
(g84
g65
NtRp1928
(dp1929
g68
(dp1930
g88
g89
ssg77
g1924
sg70
(lp1931
g790
asbag63
(g84
g65
NtRp1932
(dp1933
g68
(dp1934
g95
g96
ssg77
g1924
sg70
(lp1935
S':'
asbag63
(g84
g65
NtRp1936
(dp1937
g68
(dp1938
sg77
g1924
sg70
(lp1939
g63
(g64
g65
NtRp1940
(dp1941
g68
(dp1942
g76
I4
ssg77
g1936
sg70
(lp1943
S'set([])'
p1944
asbasbasbag63
(g79
g65
NtRp1945
(dp1946
g68
(dp1947
sg77
g1834
sg70
(lp1948
g63
(g84
g65
NtRp1949
(dp1950
g68
(dp1951
g88
g89
ssg77
g1945
sg70
(lp1952
g812
asbag63
(g84
g65
NtRp1953
(dp1954
g68
(dp1955
g95
g96
ssg77
g1945
sg70
(lp1956
S':'
asbag63
(g84
g65
NtRp1957
(dp1958
g68
(dp1959
sg77
g1945
sg70
(lp1960
g63
(g64
g65
NtRp1961
(dp1962
g68
(dp1963
g76
I4
ssg77
g1957
sg70
(lp1964
g825
asbasbasbag63
(g79
g65
NtRp1965
(dp1966
g68
(dp1967
sg77
g1834
sg70
(lp1968
g63
(g84
g65
NtRp1969
(dp1970
g68
(dp1971
g88
g89
ssg77
g1965
sg70
(lp1972
g834
asbag63
(g84
g65
NtRp1973
(dp1974
g68
(dp1975
g95
g96
ssg77
g1965
sg70
(lp1976
S':'
asbag63
(g84
g65
NtRp1977
(dp1978
g68
(dp1979
sg77
g1965
sg70
(lp1980
g63
(g64
g65
NtRp1981
(dp1982
g68
(dp1983
g76
I4
ssg77
g1977
sg70
(lp1984
g847
asbasbasbag63
(g79
g65
NtRp1985
(dp1986
g68
(dp1987
sg77
g1834
sg70
(lp1988
g63
(g84
g65
NtRp1989
(dp1990
g68
(dp1991
g88
g89
ssg77
g1985
sg70
(lp1992
g1140
asbag63
(g84
g65
NtRp1993
(dp1994
g68
(dp1995
g95
g96
ssg77
g1985
sg70
(lp1996
S':'
asbag63
(g84
g65
NtRp1997
(dp1998
g68
(dp1999
sg77
g1985
sg70
(lp2000
g63
(g64
g65
NtRp2001
(dp2002
g68
(dp2003
g76
I4
ssg77
g1997
sg70
(lp2004
g825
asbasbasbag63
(g79
g65
NtRp2005
(dp2006
g68
(dp2007
sg77
g1834
sg70
(lp2008
g63
(g84
g65
NtRp2009
(dp2010
g68
(dp2011
g88
g89
ssg77
g2005
sg70
(lp2012
g1161
asbag63
(g84
g65
NtRp2013
(dp2014
g68
(dp2015
g95
g96
ssg77
g2005
sg70
(lp2016
S':'
asbag63
(g84
g65
NtRp2017
(dp2018
g68
(dp2019
sg77
g2005
sg70
(lp2020
g63
(g64
g65
NtRp2021
(dp2022
g68
(dp2023
g76
I4
ssg77
g2017
sg70
(lp2024
g825
asbasbasbag63
(g79
g65
NtRp2025
(dp2026
g68
(dp2027
sg77
g1834
sg70
(lp2028
g63
(g84
g65
NtRp2029
(dp2030
g68
(dp2031
g88
g89
ssg77
g2025
sg70
(lp2032
g1399
asbag63
(g84
g65
NtRp2033
(dp2034
g68
(dp2035
g95
g96
ssg77
g2025
sg70
(lp2036
S':'
asbag63
(g84
g65
NtRp2037
(dp2038
g68
(dp2039
sg77
g2025
sg70
(lp2040
g63
(g64
g65
NtRp2041
(dp2042
g68
(dp2043
g76
I4
ssg77
g2037
sg70
(lp2044
g1412
asbasbasbag63
(g79
g65
NtRp2045
(dp2046
g68
(dp2047
sg77
g1834
sg70
(lp2048
g63
(g84
g65
NtRp2049
(dp2050
g68
(dp2051
g88
g89
ssg77
g2045
sg70
(lp2052
g1442
asbag63
(g84
g65
NtRp2053
(dp2054
g68
(dp2055
g95
g96
ssg77
g2045
sg70
(lp2056
S':'
asbag63
(g84
g65
NtRp2057
(dp2058
g68
(dp2059
sg77
g2045
sg70
(lp2060
g63
(g64
g65
NtRp2061
(dp2062
g68
(dp2063
g76
I4
ssg77
g2057
sg70
(lp2064
g63
(g72
g65
NtRp2065
(dp2066
g68
(dp2067
g76
I3
ssg77
Nsg70
(lp2068
g63
(g79
g65
NtRp2069
(dp2070
g68
(dp2071
sg77
g2065
sg70
(lp2072
g63
(g84
g65
NtRp2073
(dp2074
g68
(dp2075
sg77
g2069
sg70
(lp2076
g63
(g64
g65
NtRp2077
(dp2078
g68
(dp2079
g76
I3
ssg77
g2073
sg70
(lp2080
S'1'
asbasbasbag63
(g79
g65
NtRp2081
(dp2082
g68
(dp2083
sg77
g2065
sg70
(lp2084
g63
(g84
g65
NtRp2085
(dp2086
g68
(dp2087
sg77
g2081
sg70
(lp2088
g63
(g64
g65
NtRp2089
(dp2090
g68
(dp2091
g76
I3
ssg77
g2085
sg70
(lp2092
S'99'
p2093
asbasbasbag63
(g79
g65
NtRp2094
(dp2095
g68
(dp2096
sg77
g2065
sg70
(lp2097
g63
(g84
g65
NtRp2098
(dp2099
g68
(dp2100
sg77
g2094
sg70
(lp2101
g63
(g64
g65
NtRp2102
(dp2103
g68
(dp2104
g76
I3
ssg77
g2098
sg70
(lp2105
S'4'
asbasbasbag63
(g79
g65
NtRp2106
(dp2107
g68
(dp2108
sg77
g2065
sg70
(lp2109
g63
(g84
g65
NtRp2110
(dp2111
g68
(dp2112
sg77
g2106
sg70
(lp2113
g63
(g64
g65
NtRp2114
(dp2115
g68
(dp2116
g76
I3
ssg77
g2110
sg70
(lp2117
S'datetime.datetime(2011, 12, 14, 14, 46, 14)'
p2118
asbasbasbag63
(g79
g65
NtRp2119
(dp2120
g68
(dp2121
sg77
g2065
sg70
(lp2122
g63
(g84
g65
NtRp2123
(dp2124
g68
(dp2125
sg77
g2119
sg70
(lp2126
g63
(g64
g65
NtRp2127
(dp2128
g68
(dp2129
g76
I3
ssg77
g2123
sg70
(lp2130
g1521
asbasbasbasbasbasbasbasbasbasbasbag63
(g79
g65
NtRp2131
(dp2132
g68
(dp2133
sg77
g73
sg70
(lp2134
g63
(g84
g65
NtRp2135
(dp2136
g68
(dp2137
g88
g89
ssg77
g2131
sg70
(lp2138
S'is_https'
p2139
asbag63
(g84
g65
NtRp2140
(dp2141
g68
(dp2142
g95
g96
ssg77
g2131
sg70
(lp2143
S':'
asbag63
(g84
g65
NtRp2144
(dp2145
g68
(dp2146
sg77
g2131
sg70
(lp2147
g63
(g64
g65
NtRp2148
(dp2149
g68
(dp2150
g76
I5
ssg77
g2144
sg70
(lp2151
g825
asbasbasbag63
(g79
g65
NtRp2152
(dp2153
g68
(dp2154
sg77
g73
sg70
(lp2155
g63
(g84
g65
NtRp2156
(dp2157
g68
(dp2158
g88
g89
ssg77
g2152
sg70
(lp2159
S'is_local'
p2160
asbag63
(g84
g65
NtRp2161
(dp2162
g68
(dp2163
g95
g96
ssg77
g2152
sg70
(lp2164
S':'
asbag63
(g84
g65
NtRp2165
(dp2166
g68
(dp2167
sg77
g2152
sg70
(lp2168
g63
(g64
g65
NtRp2169
(dp2170
g68
(dp2171
g76
I5
ssg77
g2165
sg70
(lp2172
g106
asbasbasbag63
(g79
g65
NtRp2173
(dp2174
g68
(dp2175
sg77
g73
sg70
(lp2176
g63
(g84
g65
NtRp2177
(dp2178
g68
(dp2179
g88
g89
ssg77
g2173
sg70
(lp2180
S'is_restful'
p2181
asbag63
(g84
g65
NtRp2182
(dp2183
g68
(dp2184
g95
g96
ssg77
g2173
sg70
(lp2185
S':'
asbag63
(g84
g65
NtRp2186
(dp2187
g68
(dp2188
sg77
g2173
sg70
(lp2189
g63
(g64
g65
NtRp2190
(dp2191
g68
(dp2192
g76
I5
ssg77
g2186
sg70
(lp2193
g825
asbasbasbag63
(g79
g65
NtRp2194
(dp2195
g68
(dp2196
sg77
g73
sg70
(lp2197
g63
(g84
g65
NtRp2198
(dp2199
g68
(dp2200
g88
g89
ssg77
g2194
sg70
(lp2201
S'now'
p2202
asbag63
(g84
g65
NtRp2203
(dp2204
g68
(dp2205
g95
g96
ssg77
g2194
sg70
(lp2206
S':'
asbag63
(g84
g65
NtRp2207
(dp2208
g68
(dp2209
sg77
g2194
sg70
(lp2210
g63
(g64
g65
NtRp2211
(dp2212
g68
(dp2213
g76
I5
ssg77
g2207
sg70
(lp2214
S'datetime.datetime(2012, 3, 10, 15, 16, 10, 741675)'
p2215
asbasbasbag63
(g79
g65
NtRp2216
(dp2217
g68
(dp2218
sg77
g73
sg70
(lp2219
g63
(g84
g65
NtRp2220
(dp2221
g68
(dp2222
g88
g89
ssg77
g2216
sg70
(lp2223
S'post_vars'
p2224
asbag63
(g84
g65
NtRp2225
(dp2226
g68
(dp2227
g95
g96
ssg77
g2216
sg70
(lp2228
S':'
asbag63
(g84
g65
NtRp2229
(dp2230
g68
(dp2231
sg77
g2216
sg70
(lp2232
g63
(g64
g65
NtRp2233
(dp2234
g68
(dp2235
g76
I5
ssg77
g2229
sg70
(lp2236
g63
(g72
g65
NtRp2237
(dp2238
g68
(dp2239
g76
I4
ssg77
Nsg70
(lp2240
g63
(g79
g65
NtRp2241
(dp2242
g68
(dp2243
sg77
g2237
sg70
(lp2244
g63
(g84
g65
NtRp2245
(dp2246
g68
(dp2247
g88
g89
ssg77
g2241
sg70
(lp2248
S'group'
p2249
asbag63
(g84
g65
NtRp2250
(dp2251
g68
(dp2252
g95
g96
ssg77
g2241
sg70
(lp2253
S':'
asbag63
(g84
g65
NtRp2254
(dp2255
g68
(dp2256
sg77
g2241
sg70
(lp2257
g63
(g64
g65
NtRp2258
(dp2259
g68
(dp2260
g76
I4
ssg77
g2254
sg70
(lp2261
S'boxes'
p2262
asbasbasbag63
(g79
g65
NtRp2263
(dp2264
g68
(dp2265
sg77
g2237
sg70
(lp2266
g63
(g84
g65
NtRp2267
(dp2268
g68
(dp2269
g88
g89
ssg77
g2263
sg70
(lp2270
S'message'
p2271
asbag63
(g84
g65
NtRp2272
(dp2273
g68
(dp2274
g95
g96
ssg77
g2263
sg70
(lp2275
S':'
asbag63
(g84
g65
NtRp2276
(dp2277
g68
(dp2278
sg77
g2263
sg70
(lp2279
g63
(g64
g65
NtRp2280
(dp2281
g68
(dp2282
g76
I4
ssg77
g2276
sg70
(lp2283
S'ls -la'
p2284
asbasbasbasbasbasbasbag63
(g79
g65
NtRp2285
(dp2286
g68
(dp2287
sg77
g73
sg70
(lp2288
g63
(g84
g65
NtRp2289
(dp2290
g68
(dp2291
g88
g89
ssg77
g2285
sg70
(lp2292
S'url'
p2293
asbag63
(g84
g65
NtRp2294
(dp2295
g68
(dp2296
g95
g96
ssg77
g2285
sg70
(lp2297
S':'
asbag63
(g84
g65
NtRp2298
(dp2299
g68
(dp2300
sg77
g2285
sg70
(lp2301
g63
(g64
g65
NtRp2302
(dp2303
g68
(dp2304
g76
I5
ssg77
g2298
sg70
(lp2305
S'/mfpdcb/default/ajaxproxy'
p2306
asbasbasbag63
(g79
g65
NtRp2307
(dp2308
g68
(dp2309
sg77
g73
sg70
(lp2310
g63
(g84
g65
NtRp2311
(dp2312
g68
(dp2313
g88
g89
ssg77
g2307
sg70
(lp2314
S'utcnow'
p2315
asbag63
(g84
g65
NtRp2316
(dp2317
g68
(dp2318
g95
g96
ssg77
g2307
sg70
(lp2319
S':'
asbag63
(g84
g65
NtRp2320
(dp2321
g68
(dp2322
sg77
g2307
sg70
(lp2323
g63
(g64
g65
NtRp2324
(dp2325
g68
(dp2326
g76
I5
ssg77
g2320
sg70
(lp2327
S'datetime.datetime(2012, 3, 10, 22, 16, 10, 741701)'
p2328
asbasbasbag63
(g79
g65
NtRp2329
(dp2330
g68
(dp2331
sg77
g73
sg70
(lp2332
g63
(g84
g65
NtRp2333
(dp2334
g68
(dp2335
g88
g89
ssg77
g2329
sg70
(lp2336
S'uuid'
p2337
asbag63
(g84
g65
NtRp2338
(dp2339
g68
(dp2340
g95
g96
ssg77
g2329
sg70
(lp2341
S':'
asbag63
(g84
g65
NtRp2342
(dp2343
g68
(dp2344
sg77
g2329
sg70
(lp2345
g63
(g64
g65
NtRp2346
(dp2347
g68
(dp2348
g76
I5
ssg77
g2342
sg70
(lp2349
S'mfpdcb/127.0.0.1.2012-03-10.15-16-10.0f4133b5-e677-4a50-964d-e5fa01c8cccc'
p2350
asbasbasbag63
(g79
g65
NtRp2351
(dp2352
g68
(dp2353
sg77
g73
sg70
(lp2354
g63
(g84
g65
NtRp2355
(dp2356
g68
(dp2357
g88
g89
ssg77
g2351
sg70
(lp2358
S'vars'
p2359
asbag63
(g84
g65
NtRp2360
(dp2361
g68
(dp2362
g95
g96
ssg77
g2351
sg70
(lp2363
S':'
asbag63
(g84
g65
NtRp2364
(dp2365
g68
(dp2366
sg77
g2351
sg70
(lp2367
g63
(g64
g65
NtRp2368
(dp2369
g68
(dp2370
g76
I5
ssg77
g2364
sg70
(lp2371
g63
(g72
g65
NtRp2372
(dp2373
g68
(dp2374
g76
I4
ssg77
Nsg70
(lp2375
g63
(g79
g65
NtRp2376
(dp2377
g68
(dp2378
sg77
g2372
sg70
(lp2379
g63
(g84
g65
NtRp2380
(dp2381
g68
(dp2382
g88
g89
ssg77
g2376
sg70
(lp2383
g2249
asbag63
(g84
g65
NtRp2384
(dp2385
g68
(dp2386
g95
g96
ssg77
g2376
sg70
(lp2387
S':'
asbag63
(g84
g65
NtRp2388
(dp2389
g68
(dp2390
sg77
g2376
sg70
(lp2391
g63
(g64
g65
NtRp2392
(dp2393
g68
(dp2394
g76
I4
ssg77
g2388
sg70
(lp2395
g2262
asbasbasbag63
(g79
g65
NtRp2396
(dp2397
g68
(dp2398
sg77
g2372
sg70
(lp2399
g63
(g84
g65
NtRp2400
(dp2401
g68
(dp2402
g88
g89
ssg77
g2396
sg70
(lp2403
g2271
asbag63
(g84
g65
NtRp2404
(dp2405
g68
(dp2406
g95
g96
ssg77
g2396
sg70
(lp2407
S':'
asbag63
(g84
g65
NtRp2408
(dp2409
g68
(dp2410
sg77
g2396
sg70
(lp2411
g63
(g64
g65
NtRp2412
(dp2413
g68
(dp2414
g76
I4
ssg77
g2408
sg70
(lp2415
g2284
asbasbasbasbasbasbasbag63
(g79
g65
NtRp2416
(dp2417
g68
(dp2418
sg77
g73
sg70
(lp2419
g63
(g84
g65
NtRp2420
(dp2421
g68
(dp2422
g88
g89
ssg77
g2416
sg70
(lp2423
S'wsgi'
p2424
asbag63
(g84
g65
NtRp2425
(dp2426
g68
(dp2427
g95
g96
ssg77
g2416
sg70
(lp2428
S':'
asbag63
(g84
g65
NtRp2429
(dp2430
g68
(dp2431
sg77
g2416
sg70
(lp2432
g63
(g64
g65
NtRp2433
(dp2434
g68
(dp2435
g76
I5
ssg77
g2429
sg70
(lp2436
g63
(g72
g65
NtRp2437
(dp2438
g68
(dp2439
g76
I4
ssg77
Nsg70
(lp2440
g63
(g79
g65
NtRp2441
(dp2442
g68
(dp2443
sg77
g2437
sg70
(lp2444
g63
(g84
g65
NtRp2445
(dp2446
g68
(dp2447
g88
g89
ssg77
g2441
sg70
(lp2448
S'environ'
p2449
asbag63
(g84
g65
NtRp2450
(dp2451
g68
(dp2452
g95
g96
ssg77
g2441
sg70
(lp2453
S':'
asbag63
(g84
g65
NtRp2454
(dp2455
g68
(dp2456
sg77
g2441
sg70
(lp2457
g63
(g64
g65
NtRp2458
(dp2459
g68
(dp2460
g76
I4
ssg77
g2454
sg70
(lp2461
g63
(g72
g65
NtRp2462
(dp2463
g68
(dp2464
g76
I3
ssg77
Nsg70
(lp2465
g63
(g79
g65
NtRp2466
(dp2467
g68
(dp2468
sg77
g2462
sg70
(lp2469
g63
(g84
g65
NtRp2470
(dp2471
g68
(dp2472
g88
g89
ssg77
g2466
sg70
(lp2473
S'CONTENT_LENGTH'
p2474
asbag63
(g84
g65
NtRp2475
(dp2476
g68
(dp2477
g95
g96
ssg77
g2466
sg70
(lp2478
S':'
asbag63
(g84
g65
NtRp2479
(dp2480
g68
(dp2481
sg77
g2466
sg70
(lp2482
g63
(g64
g65
NtRp2483
(dp2484
g68
(dp2485
g76
I3
ssg77
g2479
sg70
(lp2486
g759
asbasbasbag63
(g79
g65
NtRp2487
(dp2488
g68
(dp2489
sg77
g2462
sg70
(lp2490
g63
(g84
g65
NtRp2491
(dp2492
g68
(dp2493
g88
g89
ssg77
g2487
sg70
(lp2494
S'CONTENT_TYPE'
p2495
asbag63
(g84
g65
NtRp2496
(dp2497
g68
(dp2498
g95
g96
ssg77
g2487
sg70
(lp2499
S':'
asbag63
(g84
g65
NtRp2500
(dp2501
g68
(dp2502
sg77
g2487
sg70
(lp2503
g63
(g64
g65
NtRp2504
(dp2505
g68
(dp2506
g76
I3
ssg77
g2500
sg70
(lp2507
g781
asbasbasbag63
(g79
g65
NtRp2508
(dp2509
g68
(dp2510
sg77
g2462
sg70
(lp2511
g63
(g84
g65
NtRp2512
(dp2513
g68
(dp2514
g88
g89
ssg77
g2508
sg70
(lp2515
S'HTTP_ACCEPT'
p2516
asbag63
(g84
g65
NtRp2517
(dp2518
g68
(dp2519
g95
g96
ssg77
g2508
sg70
(lp2520
S':'
asbag63
(g84
g65
NtRp2521
(dp2522
g68
(dp2523
sg77
g2508
sg70
(lp2524
g63
(g64
g65
NtRp2525
(dp2526
g68
(dp2527
g76
I3
ssg77
g2521
sg70
(lp2528
g869
asbasbasbag63
(g79
g65
NtRp2529
(dp2530
g68
(dp2531
sg77
g2462
sg70
(lp2532
g63
(g84
g65
NtRp2533
(dp2534
g68
(dp2535
g88
g89
ssg77
g2529
sg70
(lp2536
S'HTTP_ACCEPT_CHARSET'
p2537
asbag63
(g84
g65
NtRp2538
(dp2539
g68
(dp2540
g95
g96
ssg77
g2529
sg70
(lp2541
S':'
asbag63
(g84
g65
NtRp2542
(dp2543
g68
(dp2544
sg77
g2529
sg70
(lp2545
g63
(g64
g65
NtRp2546
(dp2547
g68
(dp2548
g76
I3
ssg77
g2542
sg70
(lp2549
g891
asbasbasbag63
(g79
g65
NtRp2550
(dp2551
g68
(dp2552
sg77
g2462
sg70
(lp2553
g63
(g84
g65
NtRp2554
(dp2555
g68
(dp2556
g88
g89
ssg77
g2550
sg70
(lp2557
S'HTTP_ACCEPT_ENCODING'
p2558
asbag63
(g84
g65
NtRp2559
(dp2560
g68
(dp2561
g95
g96
ssg77
g2550
sg70
(lp2562
S':'
asbag63
(g84
g65
NtRp2563
(dp2564
g68
(dp2565
sg77
g2550
sg70
(lp2566
g63
(g64
g65
NtRp2567
(dp2568
g68
(dp2569
g76
I3
ssg77
g2563
sg70
(lp2570
g913
asbasbasbag63
(g79
g65
NtRp2571
(dp2572
g68
(dp2573
sg77
g2462
sg70
(lp2574
g63
(g84
g65
NtRp2575
(dp2576
g68
(dp2577
g88
g89
ssg77
g2571
sg70
(lp2578
S'HTTP_ACCEPT_LANGUAGE'
p2579
asbag63
(g84
g65
NtRp2580
(dp2581
g68
(dp2582
g95
g96
ssg77
g2571
sg70
(lp2583
S':'
asbag63
(g84
g65
NtRp2584
(dp2585
g68
(dp2586
sg77
g2571
sg70
(lp2587
g63
(g64
g65
NtRp2588
(dp2589
g68
(dp2590
g76
I3
ssg77
g2584
sg70
(lp2591
g935
asbasbasbag63
(g79
g65
NtRp2592
(dp2593
g68
(dp2594
sg77
g2462
sg70
(lp2595
g63
(g84
g65
NtRp2596
(dp2597
g68
(dp2598
g88
g89
ssg77
g2592
sg70
(lp2599
S'HTTP_CONNECTION'
p2600
asbag63
(g84
g65
NtRp2601
(dp2602
g68
(dp2603
g95
g96
ssg77
g2592
sg70
(lp2604
S':'
asbag63
(g84
g65
NtRp2605
(dp2606
g68
(dp2607
sg77
g2592
sg70
(lp2608
g63
(g64
g65
NtRp2609
(dp2610
g68
(dp2611
g76
I3
ssg77
g2605
sg70
(lp2612
g957
asbasbasbag63
(g79
g65
NtRp2613
(dp2614
g68
(dp2615
sg77
g2462
sg70
(lp2616
g63
(g84
g65
NtRp2617
(dp2618
g68
(dp2619
g88
g89
ssg77
g2613
sg70
(lp2620
S'HTTP_CONTENT_LENGTH'
p2621
asbag63
(g84
g65
NtRp2622
(dp2623
g68
(dp2624
g95
g96
ssg77
g2613
sg70
(lp2625
S':'
asbag63
(g84
g65
NtRp2626
(dp2627
g68
(dp2628
sg77
g2613
sg70
(lp2629
g63
(g64
g65
NtRp2630
(dp2631
g68
(dp2632
g76
I3
ssg77
g2626
sg70
(lp2633
g759
asbasbasbag63
(g79
g65
NtRp2634
(dp2635
g68
(dp2636
sg77
g2462
sg70
(lp2637
g63
(g84
g65
NtRp2638
(dp2639
g68
(dp2640
g88
g89
ssg77
g2634
sg70
(lp2641
S'HTTP_CONTENT_TYPE'
p2642
asbag63
(g84
g65
NtRp2643
(dp2644
g68
(dp2645
g95
g96
ssg77
g2634
sg70
(lp2646
S':'
asbag63
(g84
g65
NtRp2647
(dp2648
g68
(dp2649
sg77
g2634
sg70
(lp2650
g63
(g64
g65
NtRp2651
(dp2652
g68
(dp2653
g76
I3
ssg77
g2647
sg70
(lp2654
g781
asbasbasbag63
(g79
g65
NtRp2655
(dp2656
g68
(dp2657
sg77
g2462
sg70
(lp2658
g63
(g84
g65
NtRp2659
(dp2660
g68
(dp2661
g88
g89
ssg77
g2655
sg70
(lp2662
S'HTTP_COOKIE'
p2663
asbag63
(g84
g65
NtRp2664
(dp2665
g68
(dp2666
g95
g96
ssg77
g2655
sg70
(lp2667
S':'
asbag63
(g84
g65
NtRp2668
(dp2669
g68
(dp2670
sg77
g2655
sg70
(lp2671
g63
(g64
g65
NtRp2672
(dp2673
g68
(dp2674
g76
I3
ssg77
g2668
sg70
(lp2675
g1021
asbasbasbag63
(g79
g65
NtRp2676
(dp2677
g68
(dp2678
sg77
g2462
sg70
(lp2679
g63
(g84
g65
NtRp2680
(dp2681
g68
(dp2682
g88
g89
ssg77
g2676
sg70
(lp2683
S'HTTP_HOST'
p2684
asbag63
(g84
g65
NtRp2685
(dp2686
g68
(dp2687
g95
g96
ssg77
g2676
sg70
(lp2688
S':'
asbag63
(g84
g65
NtRp2689
(dp2690
g68
(dp2691
sg77
g2676
sg70
(lp2692
g63
(g64
g65
NtRp2693
(dp2694
g68
(dp2695
g76
I3
ssg77
g2689
sg70
(lp2696
g1043
asbasbasbag63
(g79
g65
NtRp2697
(dp2698
g68
(dp2699
sg77
g2462
sg70
(lp2700
g63
(g84
g65
NtRp2701
(dp2702
g68
(dp2703
g88
g89
ssg77
g2697
sg70
(lp2704
S'HTTP_ORIGIN'
p2705
asbag63
(g84
g65
NtRp2706
(dp2707
g68
(dp2708
g95
g96
ssg77
g2697
sg70
(lp2709
S':'
asbag63
(g84
g65
NtRp2710
(dp2711
g68
(dp2712
sg77
g2697
sg70
(lp2713
g63
(g64
g65
NtRp2714
(dp2715
g68
(dp2716
g76
I3
ssg77
g2710
sg70
(lp2717
g1065
asbasbasbag63
(g79
g65
NtRp2718
(dp2719
g68
(dp2720
sg77
g2462
sg70
(lp2721
g63
(g84
g65
NtRp2722
(dp2723
g68
(dp2724
g88
g89
ssg77
g2718
sg70
(lp2725
S'HTTP_REFERER'
p2726
asbag63
(g84
g65
NtRp2727
(dp2728
g68
(dp2729
g95
g96
ssg77
g2718
sg70
(lp2730
S':'
asbag63
(g84
g65
NtRp2731
(dp2732
g68
(dp2733
sg77
g2718
sg70
(lp2734
g63
(g64
g65
NtRp2735
(dp2736
g68
(dp2737
g76
I3
ssg77
g2731
sg70
(lp2738
g1087
asbasbasbag63
(g79
g65
NtRp2739
(dp2740
g68
(dp2741
sg77
g2462
sg70
(lp2742
g63
(g84
g65
NtRp2743
(dp2744
g68
(dp2745
g88
g89
ssg77
g2739
sg70
(lp2746
S'HTTP_USER_AGENT'
p2747
asbag63
(g84
g65
NtRp2748
(dp2749
g68
(dp2750
g95
g96
ssg77
g2739
sg70
(lp2751
S':'
asbag63
(g84
g65
NtRp2752
(dp2753
g68
(dp2754
sg77
g2739
sg70
(lp2755
g63
(g64
g65
NtRp2756
(dp2757
g68
(dp2758
g76
I3
ssg77
g2752
sg70
(lp2759
g1109
asbasbasbag63
(g79
g65
NtRp2760
(dp2761
g68
(dp2762
sg77
g2462
sg70
(lp2763
g63
(g84
g65
NtRp2764
(dp2765
g68
(dp2766
g88
g89
ssg77
g2760
sg70
(lp2767
S'HTTP_X_REQUESTED_WITH'
p2768
asbag63
(g84
g65
NtRp2769
(dp2770
g68
(dp2771
g95
g96
ssg77
g2760
sg70
(lp2772
S':'
asbag63
(g84
g65
NtRp2773
(dp2774
g68
(dp2775
sg77
g2760
sg70
(lp2776
g63
(g64
g65
NtRp2777
(dp2778
g68
(dp2779
g76
I3
ssg77
g2773
sg70
(lp2780
g1131
asbasbasbag63
(g79
g65
NtRp2781
(dp2782
g68
(dp2783
sg77
g2462
sg70
(lp2784
g63
(g84
g65
NtRp2785
(dp2786
g68
(dp2787
g88
g89
ssg77
g2781
sg70
(lp2788
S'PATH_INFO'
p2789
asbag63
(g84
g65
NtRp2790
(dp2791
g68
(dp2792
g95
g96
ssg77
g2781
sg70
(lp2793
S':'
asbag63
(g84
g65
NtRp2794
(dp2795
g68
(dp2796
sg77
g2781
sg70
(lp2797
g63
(g64
g65
NtRp2798
(dp2799
g68
(dp2800
g76
I3
ssg77
g2794
sg70
(lp2801
g1195
asbasbasbag63
(g79
g65
NtRp2802
(dp2803
g68
(dp2804
sg77
g2462
sg70
(lp2805
g63
(g84
g65
NtRp2806
(dp2807
g68
(dp2808
g88
g89
ssg77
g2802
sg70
(lp2809
S'QUERY_STRING'
p2810
asbag63
(g84
g65
NtRp2811
(dp2812
g68
(dp2813
g95
g96
ssg77
g2802
sg70
(lp2814
S':'
asbag63
(g84
g65
NtRp2815
(dp2816
g68
(dp2817
sg77
g2802
sg70
(lp2818
g63
(g64
g65
NtRp2819
(dp2820
g68
(dp2821
g76
I3
ssg77
g2815
sg70
(lp2822
S''
asbasbasbag63
(g79
g65
NtRp2823
(dp2824
g68
(dp2825
sg77
g2462
sg70
(lp2826
g63
(g84
g65
NtRp2827
(dp2828
g68
(dp2829
g88
g89
ssg77
g2823
sg70
(lp2830
S'REMOTE_ADDR'
p2831
asbag63
(g84
g65
NtRp2832
(dp2833
g68
(dp2834
g95
g96
ssg77
g2823
sg70
(lp2835
S':'
asbag63
(g84
g65
NtRp2836
(dp2837
g68
(dp2838
sg77
g2823
sg70
(lp2839
g63
(g64
g65
NtRp2840
(dp2841
g68
(dp2842
g76
I3
ssg77
g2836
sg70
(lp2843
g196
asbasbasbag63
(g79
g65
NtRp2844
(dp2845
g68
(dp2846
sg77
g2462
sg70
(lp2847
g63
(g84
g65
NtRp2848
(dp2849
g68
(dp2850
g88
g89
ssg77
g2844
sg70
(lp2851
S'REMOTE_PORT'
p2852
asbag63
(g84
g65
NtRp2853
(dp2854
g68
(dp2855
g95
g96
ssg77
g2844
sg70
(lp2856
S':'
asbag63
(g84
g65
NtRp2857
(dp2858
g68
(dp2859
sg77
g2844
sg70
(lp2860
g63
(g64
g65
NtRp2861
(dp2862
g68
(dp2863
g76
I3
ssg77
g2857
sg70
(lp2864
g1259
asbasbasbag63
(g79
g65
NtRp2865
(dp2866
g68
(dp2867
sg77
g2462
sg70
(lp2868
g63
(g84
g65
NtRp2869
(dp2870
g68
(dp2871
g88
g89
ssg77
g2865
sg70
(lp2872
S'REQUEST_METHOD'
p2873
asbag63
(g84
g65
NtRp2874
(dp2875
g68
(dp2876
g95
g96
ssg77
g2865
sg70
(lp2877
S':'
asbag63
(g84
g65
NtRp2878
(dp2879
g68
(dp2880
sg77
g2865
sg70
(lp2881
g63
(g64
g65
NtRp2882
(dp2883
g68
(dp2884
g76
I3
ssg77
g2878
sg70
(lp2885
g1281
asbasbasbag63
(g79
g65
NtRp2886
(dp2887
g68
(dp2888
sg77
g2462
sg70
(lp2889
g63
(g84
g65
NtRp2890
(dp2891
g68
(dp2892
g88
g89
ssg77
g2886
sg70
(lp2893
S'SCRIPT_NAME'
p2894
asbag63
(g84
g65
NtRp2895
(dp2896
g68
(dp2897
g95
g96
ssg77
g2886
sg70
(lp2898
S':'
asbag63
(g84
g65
NtRp2899
(dp2900
g68
(dp2901
sg77
g2886
sg70
(lp2902
g63
(g64
g65
NtRp2903
(dp2904
g68
(dp2905
g76
I3
ssg77
g2899
sg70
(lp2906
S''
asbasbasbag63
(g79
g65
NtRp2907
(dp2908
g68
(dp2909
sg77
g2462
sg70
(lp2910
g63
(g84
g65
NtRp2911
(dp2912
g68
(dp2913
g88
g89
ssg77
g2907
sg70
(lp2914
S'SERVER_NAME'
p2915
asbag63
(g84
g65
NtRp2916
(dp2917
g68
(dp2918
g95
g96
ssg77
g2907
sg70
(lp2919
S':'
asbag63
(g84
g65
NtRp2920
(dp2921
g68
(dp2922
sg77
g2907
sg70
(lp2923
g63
(g64
g65
NtRp2924
(dp2925
g68
(dp2926
g76
I3
ssg77
g2920
sg70
(lp2927
g1324
asbasbasbag63
(g79
g65
NtRp2928
(dp2929
g68
(dp2930
sg77
g2462
sg70
(lp2931
g63
(g84
g65
NtRp2932
(dp2933
g68
(dp2934
g88
g89
ssg77
g2928
sg70
(lp2935
S'SERVER_PORT'
p2936
asbag63
(g84
g65
NtRp2937
(dp2938
g68
(dp2939
g95
g96
ssg77
g2928
sg70
(lp2940
S':'
asbag63
(g84
g65
NtRp2941
(dp2942
g68
(dp2943
sg77
g2928
sg70
(lp2944
g63
(g64
g65
NtRp2945
(dp2946
g68
(dp2947
g76
I3
ssg77
g2941
sg70
(lp2948
g1346
asbasbasbag63
(g79
g65
NtRp2949
(dp2950
g68
(dp2951
sg77
g2462
sg70
(lp2952
g63
(g84
g65
NtRp2953
(dp2954
g68
(dp2955
g88
g89
ssg77
g2949
sg70
(lp2956
S'SERVER_PROTOCOL'
p2957
asbag63
(g84
g65
NtRp2958
(dp2959
g68
(dp2960
g95
g96
ssg77
g2949
sg70
(lp2961
S':'
asbag63
(g84
g65
NtRp2962
(dp2963
g68
(dp2964
sg77
g2949
sg70
(lp2965
g63
(g64
g65
NtRp2966
(dp2967
g68
(dp2968
g76
I3
ssg77
g2962
sg70
(lp2969
g1368
asbasbasbag63
(g79
g65
NtRp2970
(dp2971
g68
(dp2972
sg77
g2462
sg70
(lp2973
g63
(g84
g65
NtRp2974
(dp2975
g68
(dp2976
g88
g89
ssg77
g2970
sg70
(lp2977
S'SERVER_SOFTWARE'
p2978
asbag63
(g84
g65
NtRp2979
(dp2980
g68
(dp2981
g95
g96
ssg77
g2970
sg70
(lp2982
S':'
asbag63
(g84
g65
NtRp2983
(dp2984
g68
(dp2985
sg77
g2970
sg70
(lp2986
g63
(g64
g65
NtRp2987
(dp2988
g68
(dp2989
g76
I3
ssg77
g2983
sg70
(lp2990
g1390
asbasbasbag63
(g79
g65
NtRp2991
(dp2992
g68
(dp2993
sg77
g2462
sg70
(lp2994
g63
(g84
g65
NtRp2995
(dp2996
g68
(dp2997
g88
g89
ssg77
g2991
sg70
(lp2998
S'wsgi.errors'
p2999
asbag63
(g84
g65
NtRp3000
(dp3001
g68
(dp3002
g95
g96
ssg77
g2991
sg70
(lp3003
S':'
asbag63
(g84
g65
NtRp3004
(dp3005
g68
(dp3006
sg77
g2991
sg70
(lp3007
g63
(g64
g65
NtRp3008
(dp3009
g68
(dp3010
g76
I3
ssg77
g3004
sg70
(lp3011
S"<open file '<stderr>', mode 'w' at 0x7f3684ea8270>"
p3012
asbasbasbag63
(g79
g65
NtRp3013
(dp3014
g68
(dp3015
sg77
g2462
sg70
(lp3016
g63
(g84
g65
NtRp3017
(dp3018
g68
(dp3019
g88
g89
ssg77
g3013
sg70
(lp3020
S'wsgi.file_wrapper'
p3021
asbag63
(g84
g65
NtRp3022
(dp3023
g68
(dp3024
g95
g96
ssg77
g3013
sg70
(lp3025
S':'
asbag63
(g84
g65
NtRp3026
(dp3027
g68
(dp3028
sg77
g3013
sg70
(lp3029
g63
(g64
g65
NtRp3030
(dp3031
g68
(dp3032
g76
I3
ssg77
g3026
sg70
(lp3033
S'<class wsgiref.util.FileWrapper at 0x2f27808>'
p3034
asbasbasbag63
(g79
g65
NtRp3035
(dp3036
g68
(dp3037
sg77
g2462
sg70
(lp3038
g63
(g84
g65
NtRp3039
(dp3040
g68
(dp3041
g88
g89
ssg77
g3035
sg70
(lp3042
S'wsgi.input'
p3043
asbag63
(g84
g65
NtRp3044
(dp3045
g68
(dp3046
g95
g96
ssg77
g3035
sg70
(lp3047
S':'
asbag63
(g84
g65
NtRp3048
(dp3049
g68
(dp3050
sg77
g3035
sg70
(lp3051
g63
(g64
g65
NtRp3052
(dp3053
g68
(dp3054
g76
I3
ssg77
g3048
sg70
(lp3055
S"<open file '<fdopen>', mode 'w+b' at 0x3575f60>"
p3056
asbasbasbag63
(g79
g65
NtRp3057
(dp3058
g68
(dp3059
sg77
g2462
sg70
(lp3060
g63
(g84
g65
NtRp3061
(dp3062
g68
(dp3063
g88
g89
ssg77
g3057
sg70
(lp3064
S'wsgi.multiprocess'
p3065
asbag63
(g84
g65
NtRp3066
(dp3067
g68
(dp3068
g95
g96
ssg77
g3057
sg70
(lp3069
S':'
asbag63
(g84
g65
NtRp3070
(dp3071
g68
(dp3072
sg77
g3057
sg70
(lp3073
g63
(g64
g65
NtRp3074
(dp3075
g68
(dp3076
g76
I3
ssg77
g3070
sg70
(lp3077
g825
asbasbasbag63
(g79
g65
NtRp3078
(dp3079
g68
(dp3080
sg77
g2462
sg70
(lp3081
g63
(g84
g65
NtRp3082
(dp3083
g68
(dp3084
g88
g89
ssg77
g3078
sg70
(lp3085
S'wsgi.multithread'
p3086
asbag63
(g84
g65
NtRp3087
(dp3088
g68
(dp3089
g95
g96
ssg77
g3078
sg70
(lp3090
S':'
asbag63
(g84
g65
NtRp3091
(dp3092
g68
(dp3093
sg77
g3078
sg70
(lp3094
g63
(g64
g65
NtRp3095
(dp3096
g68
(dp3097
g76
I3
ssg77
g3091
sg70
(lp3098
g106
asbasbasbag63
(g79
g65
NtRp3099
(dp3100
g68
(dp3101
sg77
g2462
sg70
(lp3102
g63
(g84
g65
NtRp3103
(dp3104
g68
(dp3105
g88
g89
ssg77
g3099
sg70
(lp3106
S'wsgi.run_once'
p3107
asbag63
(g84
g65
NtRp3108
(dp3109
g68
(dp3110
g95
g96
ssg77
g3099
sg70
(lp3111
S':'
asbag63
(g84
g65
NtRp3112
(dp3113
g68
(dp3114
sg77
g3099
sg70
(lp3115
g63
(g64
g65
NtRp3116
(dp3117
g68
(dp3118
g76
I3
ssg77
g3112
sg70
(lp3119
g825
asbasbasbag63
(g79
g65
NtRp3120
(dp3121
g68
(dp3122
sg77
g2462
sg70
(lp3123
g63
(g84
g65
NtRp3124
(dp3125
g68
(dp3126
g88
g89
ssg77
g3120
sg70
(lp3127
S'wsgi.url_scheme'
p3128
asbag63
(g84
g65
NtRp3129
(dp3130
g68
(dp3131
g95
g96
ssg77
g3120
sg70
(lp3132
S':'
asbag63
(g84
g65
NtRp3133
(dp3134
g68
(dp3135
sg77
g3120
sg70
(lp3136
g63
(g64
g65
NtRp3137
(dp3138
g68
(dp3139
g76
I3
ssg77
g3133
sg70
(lp3140
g1672
asbasbasbag63
(g79
g65
NtRp3141
(dp3142
g68
(dp3143
sg77
g2462
sg70
(lp3144
g63
(g84
g65
NtRp3145
(dp3146
g68
(dp3147
g88
g89
ssg77
g3141
sg70
(lp3148
S'wsgi.version'
p3149
asbag63
(g84
g65
NtRp3150
(dp3151
g68
(dp3152
g95
g96
ssg77
g3141
sg70
(lp3153
S':'
asbag63
(g84
g65
NtRp3154
(dp3155
g68
(dp3156
sg77
g3141
sg70
(lp3157
g63
(g64
g65
NtRp3158
(dp3159
g68
(dp3160
g76
I3
ssg77
g3154
sg70
(lp3161
S'1'
asbasbasbasbasbasbasbasbasbasbasbasbasbsS'frames'
p3162
(lp3163
(dp3164
S'file'
p3165
S'/home/schultzc/workspace/web2py/gluon/restricted.py'
p3166
sS'dump'
p3167
(dp3168
S'environment'
p3169
S"{'A': <class 'gluon.html.A'>, 'AjaxSender': <class __builtin__.AjaxSender>, 'Auth': <class 'gluon.tools.Auth'>, 'B': <class 'gluon.html.B'>, 'BEAUTIFY': <class 'gluon.html.BEAUTIFY'>, 'BODY': <class 'gluon.html.BODY'>, 'BR': <class 'gluon.html.BR'>, 'BUTTON': <class 'gluon.html.BUTTON'>, 'CAT': <class 'gluon.html.CAT'>, 'CENTER': <class 'gluon.html.CENTER'>, ...}"
p3170
sS'ccode'
p3171
S'<code object <module> at 0x3659e30, file "/home/...lications/mfpdcb/controllers/default.py", line 3>'
p3172
ssS'lnum'
p3173
I204
sS'lines'
p3174
(dp3175
I199
S'    try:'
p3176
sI200
S'        if type(code) == types.CodeType:'
p3177
sI201
S'            ccode = code'
p3178
sI202
S'        else:'
p3179
sI203
S'            ccode = compile2(code,layer)'
p3180
sI204
S'        exec ccode in environment'
p3181
sI205
S'    except HTTP:'
p3182
sI206
S'        raise'
p3183
sI207
S'    except RestrictedError:'
p3184
sI208
S'        # do not encapsulate (obfuscate) the original RestrictedError'
p3185
ssS'call'
p3186
S"(code='# -*- coding: utf-8 -*-\\n### required - do no del...ut\\n\\n\\n\\nresponse._vars=response._caller(ajaxproxy)\\n', environment={'A': <class 'gluon.html.A'>, 'AjaxSender': <class __builtin__.AjaxSender>, 'Auth': <class 'gluon.tools.Auth'>, 'B': <class 'gluon.html.B'>, 'BEAUTIFY': <class 'gluon.html.BEAUTIFY'>, 'BODY': <class 'gluon.html.BODY'>, 'BR': <class 'gluon.html.BR'>, 'BUTTON': <class 'gluon.html.BUTTON'>, 'CAT': <class 'gluon.html.CAT'>, 'CENTER': <class 'gluon.html.CENTER'>, ...}, layer='/home/schultzc/workspace/web2py/applications/mfpdcb/controllers/default.py')"
p3187
sS'func'
p3188
S'restricted'
p3189
sa(dp3190
g3165
S'/home/schultzc/workspace/web2py/applications/mfpdcb/controllers/default.py'
p3191
sg3167
(dp3192
sg3173
I78
sg3174
(dp3193
I67
S'    if args == None:'
p3194
sI68
S'        command = cmd'
p3195
sI69
S'    else:'
p3196
sI70
S'        command = [cmd,args]'
p3197
sI71
S'    import subprocess'
p3198
sI72
S'    proc = subprocess.Popen(command, shell=False, stdout=subprocess.PIPE, stderr=subprocess.PIPE, stdin=subprocess.PIPE)'
p3199
sI73
S'    stdout = proc.stdout.read() + proc.stderr.read()'
p3200
sI74
S'    return stdout'
p3201
sI75
S''
sI76
S''
ssg3186
S'()'
p3202
sg3188
S'<module>'
p3203
sa(dp3204
g3165
S'/home/schultzc/workspace/web2py/gluon/globals.py'
p3205
sg3167
(dp3206
S'self'
p3207
S'undefined'
p3208
sS'f'
S'<function ajaxproxy>'
p3209
ssg3173
I172
sg3174
(dp3210
I167
S'        self.meta = Storage()      # used by web2py_ajax.html'
p3211
sI168
S'        self.menu = []             # used by the default view layout'
p3212
sI169
S'        self.files = []            # used by web2py_ajax.html'
p3213
sI170
S'        self.generic_patterns = [] # patterns to allow generic views'
p3214
sI171
S'        self._vars = None'
p3215
sI172
S'        self._caller = lambda f: f()'
p3216
sI173
S'        self._view_environment = None'
p3217
sI174
S'        self._custom_commit = None'
p3218
sI175
S'        self._custom_rollback = None'
p3219
sI176
S''
ssg3186
S'(f=<function ajaxproxy>)'
p3220
sg3188
S'<lambda>'
p3221
sa(dp3222
g3165
S'/home/schultzc/workspace/web2py/applications/mfpdcb/controllers/default.py'
p3223
sg3167
(dp3224
S'url'
p3225
S"'http://127.0.0.1:9002/'"
p3226
sS'message'
p3227
S"'ls -la'"
p3228
sS'group'
p3229
S"'boxes'"
p3230
sS'sender'
p3231
S'<__builtin__.AjaxSender instance>'
p3232
sS'sender.sendCommand'
p3233
S'<bound method AjaxSender.sendCommand of <__builtin__.AjaxSender instance>>'
p3234
ssg3173
I49
sg3174
(dp3235
I44
S'def ajaxproxy():'
p3236
sI45
S"    url = 'http://127.0.0.1:9002/'"
p3237
sI46
S"    message = request.post_vars['message']"
p3238
sI47
S"    group = request.post_vars['group']"
p3239
sI48
S'    sender = AjaxSender();'
p3240
sI49
S'    sender.sendCommand(url, message, group)'
p3241
sI50
S'    return dict()'
p3242
sI51
S''
sI52
S'@auth.requires_login()'
p3243
sI53
S'def shell():'
p3244
ssg3186
S'()'
p3245
sg3188
S'ajaxproxy'
p3246
sa(dp3247
g3165
S'/home/schultzc/workspace/web2py/applications/mfpdcb/controllers/default.py'
p3248
sg3167
(dp3249
S'builtinIOError'
p3250
S"<type 'exceptions.IOError'>"
p3251
ssg3173
I12
sg3174
(dp3252
I7
S"    def sendCommand(self,url,message,group='boxes'):"
p3253
sI8
S"        params = urllib.urlencode({'message': message, 'group':group})"
p3254
sI9
S'        try:'
p3255
sI10
S'            f = urllib.urlopen(url, params)'
p3256
sI11
S'        except IOError:'
p3257
sI12
S"            raise IOError('Connection To Listener Terminated. Exiting.')"
p3258
sI13
S'        f.read()'
p3259
sI14
S'        f.close()'
p3260
sI15
S'        pass'
p3261
sI16
S''
ssg3186
S"(self=<__builtin__.AjaxSender instance>, url='http://127.0.0.1:9002/', message='ls -la', group='boxes')"
p3262
sg3188
S'sendCommand'
p3263
sasS'pyver'
p3264
S'Python 2.7.2+: /usr/bin/python2.7'
p3265
sS'session'
p3266
g63
(g64
g65
NtRp3267
(dp3268
g68
(dp3269
sg70
(lp3270
g63
(g72
g65
NtRp3271
(dp3272
g68
(dp3273
g76
I5
ssg77
Nsg70
(lp3274
g63
(g79
g65
NtRp3275
(dp3276
g68
(dp3277
sg77
g3271
sg70
(lp3278
g63
(g84
g65
NtRp3279
(dp3280
g68
(dp3281
g88
g89
ssg77
g3275
sg70
(lp3282
S'auth'
p3283
asbag63
(g84
g65
NtRp3284
(dp3285
g68
(dp3286
g95
g96
ssg77
g3275
sg70
(lp3287
S':'
asbag63
(g84
g65
NtRp3288
(dp3289
g68
(dp3290
sg77
g3275
sg70
(lp3291
g63
(g64
g65
NtRp3292
(dp3293
g68
(dp3294
g76
I5
ssg77
g3288
sg70
(lp3295
g63
(g72
g65
NtRp3296
(dp3297
g68
(dp3298
g76
I4
ssg77
Nsg70
(lp3299
g63
(g79
g65
NtRp3300
(dp3301
g68
(dp3302
sg77
g3296
sg70
(lp3303
g63
(g84
g65
NtRp3304
(dp3305
g68
(dp3306
g88
g89
ssg77
g3300
sg70
(lp3307
S'expiration'
p3308
asbag63
(g84
g65
NtRp3309
(dp3310
g68
(dp3311
g95
g96
ssg77
g3300
sg70
(lp3312
S':'
asbag63
(g84
g65
NtRp3313
(dp3314
g68
(dp3315
sg77
g3300
sg70
(lp3316
g63
(g64
g65
NtRp3317
(dp3318
g68
(dp3319
g76
I4
ssg77
g3313
sg70
(lp3320
S'2592000'
p3321
asbasbasbag63
(g79
g65
NtRp3322
(dp3323
g68
(dp3324
sg77
g3296
sg70
(lp3325
g63
(g84
g65
NtRp3326
(dp3327
g68
(dp3328
g88
g89
ssg77
g3322
sg70
(lp3329
S'hmac_key'
p3330
asbag63
(g84
g65
NtRp3331
(dp3332
g68
(dp3333
g95
g96
ssg77
g3322
sg70
(lp3334
S':'
asbag63
(g84
g65
NtRp3335
(dp3336
g68
(dp3337
sg77
g3322
sg70
(lp3338
g63
(g64
g65
NtRp3339
(dp3340
g68
(dp3341
g76
I4
ssg77
g3335
sg70
(lp3342
S'4be25c5e-0da6-490e-ab77-ba2807577ceb'
p3343
asbasbasbag63
(g79
g65
NtRp3344
(dp3345
g68
(dp3346
sg77
g3296
sg70
(lp3347
g63
(g84
g65
NtRp3348
(dp3349
g68
(dp3350
g88
g89
ssg77
g3344
sg70
(lp3351
S'last_visit'
p3352
asbag63
(g84
g65
NtRp3353
(dp3354
g68
(dp3355
g95
g96
ssg77
g3344
sg70
(lp3356
S':'
asbag63
(g84
g65
NtRp3357
(dp3358
g68
(dp3359
sg77
g3344
sg70
(lp3360
g63
(g64
g65
NtRp3361
(dp3362
g68
(dp3363
g76
I4
ssg77
g3357
sg70
(lp3364
S'datetime.datetime(2012, 3, 10, 15, 16, 1, 160801)'
p3365
asbasbasbag63
(g79
g65
NtRp3366
(dp3367
g68
(dp3368
sg77
g3296
sg70
(lp3369
g63
(g84
g65
NtRp3370
(dp3371
g68
(dp3372
g88
g89
ssg77
g3366
sg70
(lp3373
S'remember'
p3374
asbag63
(g84
g65
NtRp3375
(dp3376
g68
(dp3377
g95
g96
ssg77
g3366
sg70
(lp3378
S':'
asbag63
(g84
g65
NtRp3379
(dp3380
g68
(dp3381
sg77
g3366
sg70
(lp3382
g63
(g64
g65
NtRp3383
(dp3384
g68
(dp3385
g76
I4
ssg77
g3379
sg70
(lp3386
g825
asbasbasbag63
(g79
g65
NtRp3387
(dp3388
g68
(dp3389
sg77
g3296
sg70
(lp3390
g63
(g84
g65
NtRp3391
(dp3392
g68
(dp3393
g88
g89
ssg77
g3387
sg70
(lp3394
S'user'
p3395
asbag63
(g84
g65
NtRp3396
(dp3397
g68
(dp3398
g95
g96
ssg77
g3387
sg70
(lp3399
S':'
asbag63
(g84
g65
NtRp3400
(dp3401
g68
(dp3402
sg77
g3387
sg70
(lp3403
g63
(g64
g65
NtRp3404
(dp3405
g68
(dp3406
g76
I4
ssg77
g3400
sg70
(lp3407
g63
(g72
g65
NtRp3408
(dp3409
g68
(dp3410
g76
I3
ssg77
Nsg70
(lp3411
g63
(g79
g65
NtRp3412
(dp3413
g68
(dp3414
sg77
g3408
sg70
(lp3415
g63
(g84
g65
NtRp3416
(dp3417
g68
(dp3418
g88
g89
ssg77
g3412
sg70
(lp3419
S'created_on'
p3420
asbag63
(g84
g65
NtRp3421
(dp3422
g68
(dp3423
g95
g96
ssg77
g3412
sg70
(lp3424
S':'
asbag63
(g84
g65
NtRp3425
(dp3426
g68
(dp3427
sg77
g3412
sg70
(lp3428
g63
(g64
g65
NtRp3429
(dp3430
g68
(dp3431
g76
I3
ssg77
g3425
sg70
(lp3432
S'datetime.datetime(2011, 11, 16, 8, 47, 40)'
p3433
asbasbasbag63
(g79
g65
NtRp3434
(dp3435
g68
(dp3436
sg77
g3408
sg70
(lp3437
g63
(g84
g65
NtRp3438
(dp3439
g68
(dp3440
g88
g89
ssg77
g3434
sg70
(lp3441
S'email'
p3442
asbag63
(g84
g65
NtRp3443
(dp3444
g68
(dp3445
g95
g96
ssg77
g3434
sg70
(lp3446
S':'
asbag63
(g84
g65
NtRp3447
(dp3448
g68
(dp3449
sg77
g3434
sg70
(lp3450
g63
(g64
g65
NtRp3451
(dp3452
g68
(dp3453
g76
I3
ssg77
g3447
sg70
(lp3454
S'chaschul@uat.edu'
p3455
asbasbasbag63
(g79
g65
NtRp3456
(dp3457
g68
(dp3458
sg77
g3408
sg70
(lp3459
g63
(g84
g65
NtRp3460
(dp3461
g68
(dp3462
g88
g89
ssg77
g3456
sg70
(lp3463
S'first_name'
p3464
asbag63
(g84
g65
NtRp3465
(dp3466
g68
(dp3467
g95
g96
ssg77
g3456
sg70
(lp3468
S':'
asbag63
(g84
g65
NtRp3469
(dp3470
g68
(dp3471
sg77
g3456
sg70
(lp3472
g63
(g64
g65
NtRp3473
(dp3474
g68
(dp3475
g76
I3
ssg77
g3469
sg70
(lp3476
S'f47h3r'
p3477
asbasbasbag63
(g79
g65
NtRp3478
(dp3479
g68
(dp3480
sg77
g3408
sg70
(lp3481
g63
(g84
g65
NtRp3482
(dp3483
g68
(dp3484
g88
g89
ssg77
g3478
sg70
(lp3485
S'id'
p3486
asbag63
(g84
g65
NtRp3487
(dp3488
g68
(dp3489
g95
g96
ssg77
g3478
sg70
(lp3490
S':'
asbag63
(g84
g65
NtRp3491
(dp3492
g68
(dp3493
sg77
g3478
sg70
(lp3494
g63
(g64
g65
NtRp3495
(dp3496
g68
(dp3497
g76
I3
ssg77
g3491
sg70
(lp3498
S'11'
p3499
asbasbasbag63
(g79
g65
NtRp3500
(dp3501
g68
(dp3502
sg77
g3408
sg70
(lp3503
g63
(g84
g65
NtRp3504
(dp3505
g68
(dp3506
g88
g89
ssg77
g3500
sg70
(lp3507
S'last_name'
p3508
asbag63
(g84
g65
NtRp3509
(dp3510
g68
(dp3511
g95
g96
ssg77
g3500
sg70
(lp3512
S':'
asbag63
(g84
g65
NtRp3513
(dp3514
g68
(dp3515
sg77
g3500
sg70
(lp3516
g63
(g64
g65
NtRp3517
(dp3518
g68
(dp3519
g76
I3
ssg77
g3513
sg70
(lp3520
S'f47h3r'
p3521
asbasbasbag63
(g79
g65
NtRp3522
(dp3523
g68
(dp3524
sg77
g3408
sg70
(lp3525
g63
(g84
g65
NtRp3526
(dp3527
g68
(dp3528
g88
g89
ssg77
g3522
sg70
(lp3529
S'modified_on'
p3530
asbag63
(g84
g65
NtRp3531
(dp3532
g68
(dp3533
g95
g96
ssg77
g3522
sg70
(lp3534
S':'
asbag63
(g84
g65
NtRp3535
(dp3536
g68
(dp3537
sg77
g3522
sg70
(lp3538
g63
(g64
g65
NtRp3539
(dp3540
g68
(dp3541
g76
I3
ssg77
g3535
sg70
(lp3542
S'datetime.datetime(2011, 11, 16, 8, 47, 40)'
p3543
asbasbasbag63
(g79
g65
NtRp3544
(dp3545
g68
(dp3546
sg77
g3408
sg70
(lp3547
g63
(g84
g65
NtRp3548
(dp3549
g68
(dp3550
g88
g89
ssg77
g3544
sg70
(lp3551
S'password'
p3552
asbag63
(g84
g65
NtRp3553
(dp3554
g68
(dp3555
g95
g96
ssg77
g3544
sg70
(lp3556
S':'
asbag63
(g84
g65
NtRp3557
(dp3558
g68
(dp3559
sg77
g3544
sg70
(lp3560
g63
(g64
g65
NtRp3561
(dp3562
g68
(dp3563
g76
I3
ssg77
g3557
sg70
(lp3564
S'5d95c5fd42232ea46ffe5faa6c1a1c5c'
p3565
asbasbasbag63
(g79
g65
NtRp3566
(dp3567
g68
(dp3568
sg77
g3408
sg70
(lp3569
g63
(g84
g65
NtRp3570
(dp3571
g68
(dp3572
g88
g89
ssg77
g3566
sg70
(lp3573
S'registration_id'
p3574
asbag63
(g84
g65
NtRp3575
(dp3576
g68
(dp3577
g95
g96
ssg77
g3566
sg70
(lp3578
S':'
asbag63
(g84
g65
NtRp3579
(dp3580
g68
(dp3581
sg77
g3566
sg70
(lp3582
g63
(g64
g65
NtRp3583
(dp3584
g68
(dp3585
g76
I3
ssg77
g3579
sg70
(lp3586
S'539'
p3587
asbasbasbag63
(g79
g65
NtRp3588
(dp3589
g68
(dp3590
sg77
g3408
sg70
(lp3591
g63
(g84
g65
NtRp3592
(dp3593
g68
(dp3594
g88
g89
ssg77
g3588
sg70
(lp3595
S'registration_key'
p3596
asbag63
(g84
g65
NtRp3597
(dp3598
g68
(dp3599
g95
g96
ssg77
g3588
sg70
(lp3600
S':'
asbag63
(g84
g65
NtRp3601
(dp3602
g68
(dp3603
sg77
g3588
sg70
(lp3604
g63
(g64
g65
NtRp3605
(dp3606
g68
(dp3607
g76
I3
ssg77
g3601
sg70
(lp3608
S''
asbasbasbag63
(g79
g65
NtRp3609
(dp3610
g68
(dp3611
sg77
g3408
sg70
(lp3612
g63
(g84
g65
NtRp3613
(dp3614
g68
(dp3615
g88
g89
ssg77
g3609
sg70
(lp3616
S'reset_password_key'
p3617
asbag63
(g84
g65
NtRp3618
(dp3619
g68
(dp3620
g95
g96
ssg77
g3609
sg70
(lp3621
S':'
asbag63
(g84
g65
NtRp3622
(dp3623
g68
(dp3624
sg77
g3609
sg70
(lp3625
g63
(g64
g65
NtRp3626
(dp3627
g68
(dp3628
g76
I3
ssg77
g3622
sg70
(lp3629
S''
asbasbasbag63
(g79
g65
NtRp3630
(dp3631
g68
(dp3632
sg77
g3408
sg70
(lp3633
g63
(g84
g65
NtRp3634
(dp3635
g68
(dp3636
g88
g89
ssg77
g3630
sg70
(lp3637
S'username'
p3638
asbag63
(g84
g65
NtRp3639
(dp3640
g68
(dp3641
g95
g96
ssg77
g3630
sg70
(lp3642
S':'
asbag63
(g84
g65
NtRp3643
(dp3644
g68
(dp3645
sg77
g3630
sg70
(lp3646
g63
(g64
g65
NtRp3647
(dp3648
g68
(dp3649
g76
I3
ssg77
g3643
sg70
(lp3650
S'f47h3r'
p3651
asbasbasbasbasbasbasbasbasbasbasbasbasbsS'etype'
p3652
S"<type 'exceptions.IOError'>"
p3653
sS'date'
p3654
S'Sat Mar 10 15:16:10 2012'
p3655
sS'response'
p3656
g63
(g64
g65
NtRp3657
(dp3658
g68
(dp3659
sg70
(lp3660
g63
(g72
g65
NtRp3661
(dp3662
g68
(dp3663
g76
I5
ssg77
Nsg70
(lp3664
g63
(g79
g65
NtRp3665
(dp3666
g68
(dp3667
sg77
g3661
sg70
(lp3668
g63
(g84
g65
NtRp3669
(dp3670
g68
(dp3671
g88
g89
ssg77
g3665
sg70
(lp3672
g161
asbag63
(g84
g65
NtRp3673
(dp3674
g68
(dp3675
g95
g96
ssg77
g3665
sg70
(lp3676
S':'
asbag63
(g84
g65
NtRp3677
(dp3678
g68
(dp3679
sg77
g3665
sg70
(lp3680
g63
(g64
g65
NtRp3681
(dp3682
g68
(dp3683
g76
I5
ssg77
g3677
sg70
(lp3684
S'<cStringIO.StringO object at 0x37c5bc8>'
p3685
asbasbasbag63
(g79
g65
NtRp3686
(dp3687
g68
(dp3688
sg77
g3661
sg70
(lp3689
g63
(g84
g65
NtRp3690
(dp3691
g68
(dp3692
g88
g89
ssg77
g3686
sg70
(lp3693
g227
asbag63
(g84
g65
NtRp3694
(dp3695
g68
(dp3696
g95
g96
ssg77
g3686
sg70
(lp3697
S':'
asbag63
(g84
g65
NtRp3698
(dp3699
g68
(dp3700
sg77
g3686
sg70
(lp3701
g63
(g64
g65
NtRp3702
(dp3703
g68
(dp3704
g76
I5
ssg77
g3698
sg70
(lp3705
g63
(g72
g65
NtRp3706
(dp3707
g68
(dp3708
g76
I4
ssg77
Nsg70
(lp3709
g63
(g79
g65
NtRp3710
(dp3711
g68
(dp3712
sg77
g3706
sg70
(lp3713
g63
(g84
g65
NtRp3714
(dp3715
g68
(dp3716
g88
g89
ssg77
g3710
sg70
(lp3717
S'session_id_mfpdcb'
p3718
asbag63
(g84
g65
NtRp3719
(dp3720
g68
(dp3721
g95
g96
ssg77
g3710
sg70
(lp3722
S':'
asbag63
(g84
g65
NtRp3723
(dp3724
g68
(dp3725
sg77
g3710
sg70
(lp3726
g63
(g64
g65
NtRp3727
(dp3728
g68
(dp3729
g76
I4
ssg77
g3723
sg70
(lp3730
g63
(g72
g65
NtRp3731
(dp3732
g68
(dp3733
g76
I3
ssg77
Nsg70
(lp3734
g63
(g79
g65
NtRp3735
(dp3736
g68
(dp3737
sg77
g3731
sg70
(lp3738
g63
(g84
g65
NtRp3739
(dp3740
g68
(dp3741
g88
g89
ssg77
g3735
sg70
(lp3742
g277
asbag63
(g84
g65
NtRp3743
(dp3744
g68
(dp3745
g95
g96
ssg77
g3735
sg70
(lp3746
S':'
asbag63
(g84
g65
NtRp3747
(dp3748
g68
(dp3749
sg77
g3735
sg70
(lp3750
g63
(g64
g65
NtRp3751
(dp3752
g68
(dp3753
g76
I3
ssg77
g3747
sg70
(lp3754
S''
asbasbasbag63
(g79
g65
NtRp3755
(dp3756
g68
(dp3757
sg77
g3731
sg70
(lp3758
g63
(g84
g65
NtRp3759
(dp3760
g68
(dp3761
g88
g89
ssg77
g3755
sg70
(lp3762
g298
asbag63
(g84
g65
NtRp3763
(dp3764
g68
(dp3765
g95
g96
ssg77
g3755
sg70
(lp3766
S':'
asbag63
(g84
g65
NtRp3767
(dp3768
g68
(dp3769
sg77
g3755
sg70
(lp3770
g63
(g64
g65
NtRp3771
(dp3772
g68
(dp3773
g76
I3
ssg77
g3767
sg70
(lp3774
S''
asbasbasbag63
(g79
g65
NtRp3775
(dp3776
g68
(dp3777
sg77
g3731
sg70
(lp3778
g63
(g84
g65
NtRp3779
(dp3780
g68
(dp3781
g88
g89
ssg77
g3775
sg70
(lp3782
g319
asbag63
(g84
g65
NtRp3783
(dp3784
g68
(dp3785
g95
g96
ssg77
g3775
sg70
(lp3786
S':'
asbag63
(g84
g65
NtRp3787
(dp3788
g68
(dp3789
sg77
g3775
sg70
(lp3790
g63
(g64
g65
NtRp3791
(dp3792
g68
(dp3793
g76
I3
ssg77
g3787
sg70
(lp3794
S''
asbasbasbag63
(g79
g65
NtRp3795
(dp3796
g68
(dp3797
sg77
g3731
sg70
(lp3798
g63
(g84
g65
NtRp3799
(dp3800
g68
(dp3801
g88
g89
ssg77
g3795
sg70
(lp3802
g340
asbag63
(g84
g65
NtRp3803
(dp3804
g68
(dp3805
g95
g96
ssg77
g3795
sg70
(lp3806
S':'
asbag63
(g84
g65
NtRp3807
(dp3808
g68
(dp3809
sg77
g3795
sg70
(lp3810
g63
(g64
g65
NtRp3811
(dp3812
g68
(dp3813
g76
I3
ssg77
g3807
sg70
(lp3814
S''
asbasbasbag63
(g79
g65
NtRp3815
(dp3816
g68
(dp3817
sg77
g3731
sg70
(lp3818
g63
(g84
g65
NtRp3819
(dp3820
g68
(dp3821
g88
g89
ssg77
g3815
sg70
(lp3822
g361
asbag63
(g84
g65
NtRp3823
(dp3824
g68
(dp3825
g95
g96
ssg77
g3815
sg70
(lp3826
S':'
asbag63
(g84
g65
NtRp3827
(dp3828
g68
(dp3829
sg77
g3815
sg70
(lp3830
g63
(g64
g65
NtRp3831
(dp3832
g68
(dp3833
g76
I3
ssg77
g3827
sg70
(lp3834
S''
asbasbasbag63
(g79
g65
NtRp3835
(dp3836
g68
(dp3837
sg77
g3731
sg70
(lp3838
g63
(g84
g65
NtRp3839
(dp3840
g68
(dp3841
g88
g89
ssg77
g3835
sg70
(lp3842
g382
asbag63
(g84
g65
NtRp3843
(dp3844
g68
(dp3845
g95
g96
ssg77
g3835
sg70
(lp3846
S':'
asbag63
(g84
g65
NtRp3847
(dp3848
g68
(dp3849
sg77
g3835
sg70
(lp3850
g63
(g64
g65
NtRp3851
(dp3852
g68
(dp3853
g76
I3
ssg77
g3847
sg70
(lp3854
S'/'
asbasbasbag63
(g79
g65
NtRp3855
(dp3856
g68
(dp3857
sg77
g3731
sg70
(lp3858
g63
(g84
g65
NtRp3859
(dp3860
g68
(dp3861
g88
g89
ssg77
g3855
sg70
(lp3862
g403
asbag63
(g84
g65
NtRp3863
(dp3864
g68
(dp3865
g95
g96
ssg77
g3855
sg70
(lp3866
S':'
asbag63
(g84
g65
NtRp3867
(dp3868
g68
(dp3869
sg77
g3855
sg70
(lp3870
g63
(g64
g65
NtRp3871
(dp3872
g68
(dp3873
g76
I3
ssg77
g3867
sg70
(lp3874
S''
asbasbasbag63
(g79
g65
NtRp3875
(dp3876
g68
(dp3877
sg77
g3731
sg70
(lp3878
g63
(g84
g65
NtRp3879
(dp3880
g68
(dp3881
g88
g89
ssg77
g3875
sg70
(lp3882
g424
asbag63
(g84
g65
NtRp3883
(dp3884
g68
(dp3885
g95
g96
ssg77
g3875
sg70
(lp3886
S':'
asbag63
(g84
g65
NtRp3887
(dp3888
g68
(dp3889
sg77
g3875
sg70
(lp3890
g63
(g64
g65
NtRp3891
(dp3892
g68
(dp3893
g76
I3
ssg77
g3887
sg70
(lp3894
S''
asbasbasbasbasbasbasbasbasbasbasbag63
(g79
g65
NtRp3895
(dp3896
g68
(dp3897
sg77
g3661
sg70
(lp3898
g63
(g84
g65
NtRp3899
(dp3900
g68
(dp3901
g88
g89
ssg77
g3895
sg70
(lp3902
S'files'
p3903
asbag63
(g84
g65
NtRp3904
(dp3905
g68
(dp3906
g95
g96
ssg77
g3895
sg70
(lp3907
S':'
asbag63
(g84
g65
NtRp3908
(dp3909
g68
(dp3910
sg77
g3895
sg70
(lp3911
g63
(g64
g65
NtRp3912
(dp3913
g68
(dp3914
g76
I5
ssg77
g3908
sg70
(lp3915
g63
(g72
g65
NtRp3916
(dp3917
g68
(dp3918
g76
I4
ssg77
Nsg70
(lp3919
sbasbasbasbag63
(g79
g65
NtRp3920
(dp3921
g68
(dp3922
sg77
g3661
sg70
(lp3923
g63
(g84
g65
NtRp3924
(dp3925
g68
(dp3926
g88
g89
ssg77
g3920
sg70
(lp3927
S'flash'
p3928
asbag63
(g84
g65
NtRp3929
(dp3930
g68
(dp3931
g95
g96
ssg77
g3920
sg70
(lp3932
S':'
asbag63
(g84
g65
NtRp3933
(dp3934
g68
(dp3935
sg77
g3920
sg70
(lp3936
g63
(g64
g65
NtRp3937
(dp3938
g68
(dp3939
g76
I5
ssg77
g3933
sg70
(lp3940
S''
asbasbasbag63
(g79
g65
NtRp3941
(dp3942
g68
(dp3943
sg77
g3661
sg70
(lp3944
g63
(g84
g65
NtRp3945
(dp3946
g68
(dp3947
g88
g89
ssg77
g3941
sg70
(lp3948
S'generic_patterns'
p3949
asbag63
(g84
g65
NtRp3950
(dp3951
g68
(dp3952
g95
g96
ssg77
g3941
sg70
(lp3953
S':'
asbag63
(g84
g65
NtRp3954
(dp3955
g68
(dp3956
sg77
g3941
sg70
(lp3957
g63
(g64
g65
NtRp3958
(dp3959
g68
(dp3960
g76
I5
ssg77
g3954
sg70
(lp3961
g63
(g72
g65
NtRp3962
(dp3963
g68
(dp3964
g76
I4
ssg77
Nsg70
(lp3965
g63
(g79
g65
NtRp3966
(dp3967
g68
(dp3968
sg77
g3962
sg70
(lp3969
g63
(g84
g65
NtRp3970
(dp3971
g68
(dp3972
sg77
g3966
sg70
(lp3973
g63
(g64
g65
NtRp3974
(dp3975
g68
(dp3976
g76
I4
ssg77
g3970
sg70
(lp3977
S'*'
asbasbasbasbasbasbasbag63
(g79
g65
NtRp3978
(dp3979
g68
(dp3980
sg77
g3661
sg70
(lp3981
g63
(g84
g65
NtRp3982
(dp3983
g68
(dp3984
g88
g89
ssg77
g3978
sg70
(lp3985
S'headers'
p3986
asbag63
(g84
g65
NtRp3987
(dp3988
g68
(dp3989
g95
g96
ssg77
g3978
sg70
(lp3990
S':'
asbag63
(g84
g65
NtRp3991
(dp3992
g68
(dp3993
sg77
g3978
sg70
(lp3994
g63
(g64
g65
NtRp3995
(dp3996
g68
(dp3997
g76
I5
ssg77
g3991
sg70
(lp3998
g63
(g72
g65
NtRp3999
(dp4000
g68
(dp4001
g76
I4
ssg77
Nsg70
(lp4002
g63
(g79
g65
NtRp4003
(dp4004
g68
(dp4005
sg77
g3999
sg70
(lp4006
g63
(g84
g65
NtRp4007
(dp4008
g68
(dp4009
g88
g89
ssg77
g4003
sg70
(lp4010
S'Cache-Control'
p4011
asbag63
(g84
g65
NtRp4012
(dp4013
g68
(dp4014
g95
g96
ssg77
g4003
sg70
(lp4015
S':'
asbag63
(g84
g65
NtRp4016
(dp4017
g68
(dp4018
sg77
g4003
sg70
(lp4019
g63
(g64
g65
NtRp4020
(dp4021
g68
(dp4022
g76
I4
ssg77
g4016
sg70
(lp4023
S'no-store, no-cache, must-revalidate, post-check=0, pre-check=0'
p4024
asbasbasbag63
(g79
g65
NtRp4025
(dp4026
g68
(dp4027
sg77
g3999
sg70
(lp4028
g63
(g84
g65
NtRp4029
(dp4030
g68
(dp4031
g88
g89
ssg77
g4025
sg70
(lp4032
S'Content-Type'
p4033
asbag63
(g84
g65
NtRp4034
(dp4035
g68
(dp4036
g95
g96
ssg77
g4025
sg70
(lp4037
S':'
asbag63
(g84
g65
NtRp4038
(dp4039
g68
(dp4040
sg77
g4025
sg70
(lp4041
g63
(g64
g65
NtRp4042
(dp4043
g68
(dp4044
g76
I4
ssg77
g4038
sg70
(lp4045
S'text/html; charset=utf-8'
p4046
asbasbasbag63
(g79
g65
NtRp4047
(dp4048
g68
(dp4049
sg77
g3999
sg70
(lp4050
g63
(g84
g65
NtRp4051
(dp4052
g68
(dp4053
g88
g89
ssg77
g4047
sg70
(lp4054
S'Expires'
p4055
asbag63
(g84
g65
NtRp4056
(dp4057
g68
(dp4058
g95
g96
ssg77
g4047
sg70
(lp4059
S':'
asbag63
(g84
g65
NtRp4060
(dp4061
g68
(dp4062
sg77
g4047
sg70
(lp4063
g63
(g64
g65
NtRp4064
(dp4065
g68
(dp4066
g76
I4
ssg77
g4060
sg70
(lp4067
S'Sat, 10 Mar 2012 22:16:10 GMT'
p4068
asbasbasbag63
(g79
g65
NtRp4069
(dp4070
g68
(dp4071
sg77
g3999
sg70
(lp4072
g63
(g84
g65
NtRp4073
(dp4074
g68
(dp4075
g88
g89
ssg77
g4069
sg70
(lp4076
S'Pragma'
p4077
asbag63
(g84
g65
NtRp4078
(dp4079
g68
(dp4080
g95
g96
ssg77
g4069
sg70
(lp4081
S':'
asbag63
(g84
g65
NtRp4082
(dp4083
g68
(dp4084
sg77
g4069
sg70
(lp4085
g63
(g64
g65
NtRp4086
(dp4087
g68
(dp4088
g76
I4
ssg77
g4082
sg70
(lp4089
S'no-cache'
p4090
asbasbasbag63
(g79
g65
NtRp4091
(dp4092
g68
(dp4093
sg77
g3999
sg70
(lp4094
g63
(g84
g65
NtRp4095
(dp4096
g68
(dp4097
g88
g89
ssg77
g4091
sg70
(lp4098
S'X-Powered-By'
p4099
asbag63
(g84
g65
NtRp4100
(dp4101
g68
(dp4102
g95
g96
ssg77
g4091
sg70
(lp4103
S':'
asbag63
(g84
g65
NtRp4104
(dp4105
g68
(dp4106
sg77
g4091
sg70
(lp4107
g63
(g64
g65
NtRp4108
(dp4109
g68
(dp4110
g76
I4
ssg77
g4104
sg70
(lp4111
S'web2py'
p4112
asbasbasbasbasbasbasbag63
(g79
g65
NtRp4113
(dp4114
g68
(dp4115
sg77
g3661
sg70
(lp4116
g63
(g84
g65
NtRp4117
(dp4118
g68
(dp4119
g88
g89
ssg77
g4113
sg70
(lp4120
S'menu'
p4121
asbag63
(g84
g65
NtRp4122
(dp4123
g68
(dp4124
g95
g96
ssg77
g4113
sg70
(lp4125
S':'
asbag63
(g84
g65
NtRp4126
(dp4127
g68
(dp4128
sg77
g4113
sg70
(lp4129
g63
(g64
g65
NtRp4130
(dp4131
g68
(dp4132
g76
I5
ssg77
g4126
sg70
(lp4133
g63
(g72
g65
NtRp4134
(dp4135
g68
(dp4136
g76
I4
ssg77
Nsg70
(lp4137
g63
(g79
g65
NtRp4138
(dp4139
g68
(dp4140
sg77
g4134
sg70
(lp4141
g63
(g84
g65
NtRp4142
(dp4143
g68
(dp4144
sg77
g4138
sg70
(lp4145
g63
(g64
g65
NtRp4146
(dp4147
g68
(dp4148
g76
I4
ssg77
g4142
sg70
(lp4149
g63
(g72
g65
NtRp4150
(dp4151
g68
(dp4152
g76
I3
ssg77
Nsg70
(lp4153
g63
(g79
g65
NtRp4154
(dp4155
g68
(dp4156
sg77
g4150
sg70
(lp4157
g63
(g84
g65
NtRp4158
(dp4159
g68
(dp4160
sg77
g4154
sg70
(lp4161
g63
(g64
g65
NtRp4162
(dp4163
g68
(dp4164
g76
I3
ssg77
g4158
sg70
(lp4165
cgluon.languages
lazyT_unpickle
p4166
(S't\x05\x00\x00\x00Index'
tRp4167
asbasbasbag63
(g79
g65
NtRp4168
(dp4169
g68
(dp4170
sg77
g4150
sg70
(lp4171
g63
(g84
g65
NtRp4172
(dp4173
g68
(dp4174
sg77
g4168
sg70
(lp4175
g63
(g64
g65
NtRp4176
(dp4177
g68
(dp4178
g76
I3
ssg77
g4172
sg70
(lp4179
g825
asbasbasbag63
(g79
g65
NtRp4180
(dp4181
g68
(dp4182
sg77
g4150
sg70
(lp4183
g63
(g84
g65
NtRp4184
(dp4185
g68
(dp4186
sg77
g4180
sg70
(lp4187
g63
(g64
g65
NtRp4188
(dp4189
g68
(dp4190
g76
I3
ssg77
g4184
sg70
(lp4191
S'/mfpdcb/default/index'
p4192
asbasbasbag63
(g79
g65
NtRp4193
(dp4194
g68
(dp4195
sg77
g4150
sg70
(lp4196
g63
(g84
g65
NtRp4197
(dp4198
g68
(dp4199
sg77
g4193
sg70
(lp4200
g63
(g64
g65
NtRp4201
(dp4202
g68
(dp4203
g76
I3
ssg77
g4197
sg70
(lp4204
g63
(g72
g65
NtRp4205
(dp4206
g68
(dp4207
g76
I2
ssg77
Nsg70
(lp4208
sbasbasbasbasbasbasbasbag63
(g79
g65
NtRp4209
(dp4210
g68
(dp4211
sg77
g4134
sg70
(lp4212
g63
(g84
g65
NtRp4213
(dp4214
g68
(dp4215
sg77
g4209
sg70
(lp4216
g63
(g64
g65
NtRp4217
(dp4218
g68
(dp4219
g76
I4
ssg77
g4213
sg70
(lp4220
g63
(g72
g65
NtRp4221
(dp4222
g68
(dp4223
g76
I3
ssg77
Nsg70
(lp4224
g63
(g79
g65
NtRp4225
(dp4226
g68
(dp4227
sg77
g4221
sg70
(lp4228
g63
(g84
g65
NtRp4229
(dp4230
g68
(dp4231
sg77
g4225
sg70
(lp4232
g63
(g64
g65
NtRp4233
(dp4234
g68
(dp4235
g76
I3
ssg77
g4229
sg70
(lp4236
g4166
(S't\x05\x00\x00\x00Shell'
tRp4237
asbasbasbag63
(g79
g65
NtRp4238
(dp4239
g68
(dp4240
sg77
g4221
sg70
(lp4241
g63
(g84
g65
NtRp4242
(dp4243
g68
(dp4244
sg77
g4238
sg70
(lp4245
g63
(g64
g65
NtRp4246
(dp4247
g68
(dp4248
g76
I3
ssg77
g4242
sg70
(lp4249
g825
asbasbasbag63
(g79
g65
NtRp4250
(dp4251
g68
(dp4252
sg77
g4221
sg70
(lp4253
g63
(g84
g65
NtRp4254
(dp4255
g68
(dp4256
sg77
g4250
sg70
(lp4257
g63
(g64
g65
NtRp4258
(dp4259
g68
(dp4260
g76
I3
ssg77
g4254
sg70
(lp4261
S'/mfpdcb/default/shell'
p4262
asbasbasbag63
(g79
g65
NtRp4263
(dp4264
g68
(dp4265
sg77
g4221
sg70
(lp4266
g63
(g84
g65
NtRp4267
(dp4268
g68
(dp4269
sg77
g4263
sg70
(lp4270
g63
(g64
g65
NtRp4271
(dp4272
g68
(dp4273
g76
I3
ssg77
g4267
sg70
(lp4274
g63
(g72
g65
NtRp4275
(dp4276
g68
(dp4277
g76
I2
ssg77
Nsg70
(lp4278
sbasbasbasbasbasbasbasbag63
(g79
g65
NtRp4279
(dp4280
g68
(dp4281
sg77
g4134
sg70
(lp4282
g63
(g84
g65
NtRp4283
(dp4284
g68
(dp4285
sg77
g4279
sg70
(lp4286
g63
(g64
g65
NtRp4287
(dp4288
g68
(dp4289
g76
I4
ssg77
g4283
sg70
(lp4290
g63
(g72
g65
NtRp4291
(dp4292
g68
(dp4293
g76
I3
ssg77
Nsg70
(lp4294
g63
(g79
g65
NtRp4295
(dp4296
g68
(dp4297
sg77
g4291
sg70
(lp4298
g63
(g84
g65
NtRp4299
(dp4300
g68
(dp4301
sg77
g4295
sg70
(lp4302
g63
(g64
g65
NtRp4303
(dp4304
g68
(dp4305
g76
I3
ssg77
g4299
sg70
(lp4306
g4166
(S't\x08\x00\x00\x00Machines'
tRp4307
asbasbasbag63
(g79
g65
NtRp4308
(dp4309
g68
(dp4310
sg77
g4291
sg70
(lp4311
g63
(g84
g65
NtRp4312
(dp4313
g68
(dp4314
sg77
g4308
sg70
(lp4315
g63
(g64
g65
NtRp4316
(dp4317
g68
(dp4318
g76
I3
ssg77
g4312
sg70
(lp4319
g825
asbasbasbag63
(g79
g65
NtRp4320
(dp4321
g68
(dp4322
sg77
g4291
sg70
(lp4323
g63
(g84
g65
NtRp4324
(dp4325
g68
(dp4326
sg77
g4320
sg70
(lp4327
g63
(g64
g65
NtRp4328
(dp4329
g68
(dp4330
g76
I3
ssg77
g4324
sg70
(lp4331
S'/mfpdcb/default/machines'
p4332
asbasbasbag63
(g79
g65
NtRp4333
(dp4334
g68
(dp4335
sg77
g4291
sg70
(lp4336
g63
(g84
g65
NtRp4337
(dp4338
g68
(dp4339
sg77
g4333
sg70
(lp4340
g63
(g64
g65
NtRp4341
(dp4342
g68
(dp4343
g76
I3
ssg77
g4337
sg70
(lp4344
g63
(g72
g65
NtRp4345
(dp4346
g68
(dp4347
g76
I2
ssg77
Nsg70
(lp4348
sbasbasbasbasbasbasbasbasbasbasbasbag63
(g79
g65
NtRp4349
(dp4350
g68
(dp4351
sg77
g3661
sg70
(lp4352
g63
(g84
g65
NtRp4353
(dp4354
g68
(dp4355
g88
g89
ssg77
g4349
sg70
(lp4356
S'meta'
p4357
asbag63
(g84
g65
NtRp4358
(dp4359
g68
(dp4360
g95
g96
ssg77
g4349
sg70
(lp4361
S':'
asbag63
(g84
g65
NtRp4362
(dp4363
g68
(dp4364
sg77
g4349
sg70
(lp4365
g63
(g64
g65
NtRp4366
(dp4367
g68
(dp4368
g76
I5
ssg77
g4362
sg70
(lp4369
g63
(g72
g65
NtRp4370
(dp4371
g68
(dp4372
g76
I4
ssg77
Nsg70
(lp4373
g63
(g79
g65
NtRp4374
(dp4375
g68
(dp4376
sg77
g4370
sg70
(lp4377
g63
(g84
g65
NtRp4378
(dp4379
g68
(dp4380
g88
g89
ssg77
g4374
sg70
(lp4381
S'author'
p4382
asbag63
(g84
g65
NtRp4383
(dp4384
g68
(dp4385
g95
g96
ssg77
g4374
sg70
(lp4386
S':'
asbag63
(g84
g65
NtRp4387
(dp4388
g68
(dp4389
sg77
g4374
sg70
(lp4390
g63
(g64
g65
NtRp4391
(dp4392
g68
(dp4393
g76
I4
ssg77
g4387
sg70
(lp4394
S'f47h3r <chaschul@uat.edu>'
p4395
asbasbasbag63
(g79
g65
NtRp4396
(dp4397
g68
(dp4398
sg77
g4370
sg70
(lp4399
g63
(g84
g65
NtRp4400
(dp4401
g68
(dp4402
g88
g89
ssg77
g4396
sg70
(lp4403
S'description'
p4404
asbag63
(g84
g65
NtRp4405
(dp4406
g68
(dp4407
g95
g96
ssg77
g4396
sg70
(lp4408
S':'
asbag63
(g84
g65
NtRp4409
(dp4410
g68
(dp4411
sg77
g4396
sg70
(lp4412
g63
(g64
g65
NtRp4413
(dp4414
g68
(dp4415
g76
I4
ssg77
g4409
sg70
(lp4416
S''
asbasbasbag63
(g79
g65
NtRp4417
(dp4418
g68
(dp4419
sg77
g4370
sg70
(lp4420
g63
(g84
g65
NtRp4421
(dp4422
g68
(dp4423
g88
g89
ssg77
g4417
sg70
(lp4424
S'keywords'
p4425
asbag63
(g84
g65
NtRp4426
(dp4427
g68
(dp4428
g95
g96
ssg77
g4417
sg70
(lp4429
S':'
asbag63
(g84
g65
NtRp4430
(dp4431
g68
(dp4432
sg77
g4417
sg70
(lp4433
g63
(g64
g65
NtRp4434
(dp4435
g68
(dp4436
g76
I4
ssg77
g4430
sg70
(lp4437
S''
asbasbasbasbasbasbasbag63
(g79
g65
NtRp4438
(dp4439
g68
(dp4440
sg77
g3661
sg70
(lp4441
g63
(g84
g65
NtRp4442
(dp4443
g68
(dp4444
g88
g89
ssg77
g4438
sg70
(lp4445
S'postprocessing'
p4446
asbag63
(g84
g65
NtRp4447
(dp4448
g68
(dp4449
g95
g96
ssg77
g4438
sg70
(lp4450
S':'
asbag63
(g84
g65
NtRp4451
(dp4452
g68
(dp4453
sg77
g4438
sg70
(lp4454
g63
(g64
g65
NtRp4455
(dp4456
g68
(dp4457
g76
I5
ssg77
g4451
sg70
(lp4458
g63
(g72
g65
NtRp4459
(dp4460
g68
(dp4461
g76
I4
ssg77
Nsg70
(lp4462
sbasbasbasbag63
(g79
g65
NtRp4463
(dp4464
g68
(dp4465
sg77
g3661
sg70
(lp4466
g63
(g84
g65
NtRp4467
(dp4468
g68
(dp4469
g88
g89
ssg77
g4463
sg70
(lp4470
S'session_file'
p4471
asbag63
(g84
g65
NtRp4472
(dp4473
g68
(dp4474
g95
g96
ssg77
g4463
sg70
(lp4475
S':'
asbag63
(g84
g65
NtRp4476
(dp4477
g68
(dp4478
sg77
g4463
sg70
(lp4479
g63
(g64
g65
NtRp4480
(dp4481
g68
(dp4482
g76
I5
ssg77
g4476
sg70
(lp4483
S"<open file '/home/schultzc/workspace/web2py/applications/mfpdcb/sessions/127.0.0.1-29bfd18c-5226-4a49-ab33-5b65a9b0af5a', mode 'rb+' at 0x37b95d0>"
p4484
asbasbasbag63
(g79
g65
NtRp4485
(dp4486
g68
(dp4487
sg77
g3661
sg70
(lp4488
g63
(g84
g65
NtRp4489
(dp4490
g68
(dp4491
g88
g89
ssg77
g4485
sg70
(lp4492
S'session_filename'
p4493
asbag63
(g84
g65
NtRp4494
(dp4495
g68
(dp4496
g95
g96
ssg77
g4485
sg70
(lp4497
S':'
asbag63
(g84
g65
NtRp4498
(dp4499
g68
(dp4500
sg77
g4485
sg70
(lp4501
g63
(g64
g65
NtRp4502
(dp4503
g68
(dp4504
g76
I5
ssg77
g4498
sg70
(lp4505
S'/home/schultzc/workspace/web2py/applications/mfpdcb/sessions/127.0.0.1-29bfd18c-5226-4a49-ab33-5b65a9b0af5a'
p4506
asbasbasbag63
(g79
g65
NtRp4507
(dp4508
g68
(dp4509
sg77
g3661
sg70
(lp4510
g63
(g84
g65
NtRp4511
(dp4512
g68
(dp4513
g88
g89
ssg77
g4507
sg70
(lp4514
S'session_id'
p4515
asbag63
(g84
g65
NtRp4516
(dp4517
g68
(dp4518
g95
g96
ssg77
g4507
sg70
(lp4519
S':'
asbag63
(g84
g65
NtRp4520
(dp4521
g68
(dp4522
sg77
g4507
sg70
(lp4523
g63
(g64
g65
NtRp4524
(dp4525
g68
(dp4526
g76
I5
ssg77
g4520
sg70
(lp4527
S'127.0.0.1-29bfd18c-5226-4a49-ab33-5b65a9b0af5a'
p4528
asbasbasbag63
(g79
g65
NtRp4529
(dp4530
g68
(dp4531
sg77
g3661
sg70
(lp4532
g63
(g84
g65
NtRp4533
(dp4534
g68
(dp4535
g88
g89
ssg77
g4529
sg70
(lp4536
S'session_id_name'
p4537
asbag63
(g84
g65
NtRp4538
(dp4539
g68
(dp4540
g95
g96
ssg77
g4529
sg70
(lp4541
S':'
asbag63
(g84
g65
NtRp4542
(dp4543
g68
(dp4544
sg77
g4529
sg70
(lp4545
g63
(g64
g65
NtRp4546
(dp4547
g68
(dp4548
g76
I5
ssg77
g4542
sg70
(lp4549
g3718
asbasbasbag63
(g79
g65
NtRp4550
(dp4551
g68
(dp4552
sg77
g3661
sg70
(lp4553
g63
(g84
g65
NtRp4554
(dp4555
g68
(dp4556
g88
g89
ssg77
g4550
sg70
(lp4557
S'session_locked'
p4558
asbag63
(g84
g65
NtRp4559
(dp4560
g68
(dp4561
g95
g96
ssg77
g4550
sg70
(lp4562
S':'
asbag63
(g84
g65
NtRp4563
(dp4564
g68
(dp4565
sg77
g4550
sg70
(lp4566
g63
(g64
g65
NtRp4567
(dp4568
g68
(dp4569
g76
I5
ssg77
g4563
sg70
(lp4570
g106
asbasbasbag63
(g79
g65
NtRp4571
(dp4572
g68
(dp4573
sg77
g3661
sg70
(lp4574
g63
(g84
g65
NtRp4575
(dp4576
g68
(dp4577
g88
g89
ssg77
g4571
sg70
(lp4578
S'session_new'
p4579
asbag63
(g84
g65
NtRp4580
(dp4581
g68
(dp4582
g95
g96
ssg77
g4571
sg70
(lp4583
S':'
asbag63
(g84
g65
NtRp4584
(dp4585
g68
(dp4586
sg77
g4571
sg70
(lp4587
g63
(g64
g65
NtRp4588
(dp4589
g68
(dp4590
g76
I5
ssg77
g4584
sg70
(lp4591
g825
asbasbasbag63
(g79
g65
NtRp4592
(dp4593
g68
(dp4594
sg77
g3661
sg70
(lp4595
g63
(g84
g65
NtRp4596
(dp4597
g68
(dp4598
g88
g89
ssg77
g4592
sg70
(lp4599
S'status'
p4600
asbag63
(g84
g65
NtRp4601
(dp4602
g68
(dp4603
g95
g96
ssg77
g4592
sg70
(lp4604
S':'
asbag63
(g84
g65
NtRp4605
(dp4606
g68
(dp4607
sg77
g4592
sg70
(lp4608
g63
(g64
g65
NtRp4609
(dp4610
g68
(dp4611
g76
I5
ssg77
g4605
sg70
(lp4612
S'200'
p4613
asbasbasbag63
(g79
g65
NtRp4614
(dp4615
g68
(dp4616
sg77
g3661
sg70
(lp4617
g63
(g84
g65
NtRp4618
(dp4619
g68
(dp4620
g88
g89
ssg77
g4614
sg70
(lp4621
S'subtitle'
p4622
asbag63
(g84
g65
NtRp4623
(dp4624
g68
(dp4625
g95
g96
ssg77
g4614
sg70
(lp4626
S':'
asbag63
(g84
g65
NtRp4627
(dp4628
g68
(dp4629
sg77
g4614
sg70
(lp4630
g63
(g64
g65
NtRp4631
(dp4632
g68
(dp4633
g76
I5
ssg77
g4627
sg70
(lp4634
S'powered by yourm0m'
p4635
asbasbasbag63
(g79
g65
NtRp4636
(dp4637
g68
(dp4638
sg77
g3661
sg70
(lp4639
g63
(g84
g65
NtRp4640
(dp4641
g68
(dp4642
g88
g89
ssg77
g4636
sg70
(lp4643
S'title'
p4644
asbag63
(g84
g65
NtRp4645
(dp4646
g68
(dp4647
g95
g96
ssg77
g4636
sg70
(lp4648
S':'
asbag63
(g84
g65
NtRp4649
(dp4650
g68
(dp4651
sg77
g4636
sg70
(lp4652
g63
(g64
g65
NtRp4653
(dp4654
g68
(dp4655
g76
I5
ssg77
g4649
sg70
(lp4656
S'CCBC'
p4657
asbasbasbag63
(g79
g65
NtRp4658
(dp4659
g68
(dp4660
sg77
g3661
sg70
(lp4661
g63
(g84
g65
NtRp4662
(dp4663
g68
(dp4664
g88
g89
ssg77
g4658
sg70
(lp4665
g2337
asbag63
(g84
g65
NtRp4666
(dp4667
g68
(dp4668
g95
g96
ssg77
g4658
sg70
(lp4669
S':'
asbag63
(g84
g65
NtRp4670
(dp4671
g68
(dp4672
sg77
g4658
sg70
(lp4673
g63
(g64
g65
NtRp4674
(dp4675
g68
(dp4676
g76
I5
ssg77
g4670
sg70
(lp4677
g2350
asbasbasbag63
(g79
g65
NtRp4678
(dp4679
g68
(dp4680
sg77
g3661
sg70
(lp4681
g63
(g84
g65
NtRp4682
(dp4683
g68
(dp4684
g88
g89
ssg77
g4678
sg70
(lp4685
S'view'
p4686
asbag63
(g84
g65
NtRp4687
(dp4688
g68
(dp4689
g95
g96
ssg77
g4678
sg70
(lp4690
S':'
asbag63
(g84
g65
NtRp4691
(dp4692
g68
(dp4693
sg77
g4678
sg70
(lp4694
g63
(g64
g65
NtRp4695
(dp4696
g68
(dp4697
g76
I5
ssg77
g4691
sg70
(lp4698
S'default/ajaxproxy.html'
p4699
asbasbasbasbasbsS'locals'
p4700
(dp4701
g2293
S"'http://127.0.0.1:9002/'"
p4702
sS'params'
p4703
S"'message=ls+-la&group=boxes'"
p4704
sS'message'
p4705
S"'ls -la'"
p4706
sS'group'
p4707
S"'boxes'"
p4708
sS'self'
p4709
S'<__builtin__.AjaxSender instance>'
p4710
sssS'traceback'
p4711
S'Traceback (most recent call last):\n  File "/home/schultzc/workspace/web2py/gluon/restricted.py", line 204, in restricted\n    exec ccode in environment\n  File "/home/schultzc/workspace/web2py/applications/mfpdcb/controllers/default.py", line 78, in <module>\n  File "/home/schultzc/workspace/web2py/gluon/globals.py", line 172, in <lambda>\n    self._caller = lambda f: f()\n  File "/home/schultzc/workspace/web2py/applications/mfpdcb/controllers/default.py", line 49, in ajaxproxy\n    sender.sendCommand(url, message, group)\n  File "/home/schultzc/workspace/web2py/applications/mfpdcb/controllers/default.py", line 12, in sendCommand\n    raise IOError(\'Connection To Listener Terminated. Exiting.\')\nIOError: Connection To Listener Terminated. Exiting.\n'
p4712
s.