(dp1
S'output'
p2
S''
sS'layer'
p3
S'/Users/schultzc/Documents/[Buffer]Overflow/github/fried/src/applications/fried/controllers/default.py'
p4
sS'code'
p5
S"# -*- coding: utf-8 -*-\n### required - do no delete\nfrom gluon.contrib.comet_messaging import comet_send\n\ndef user(): return dict(form=auth())\ndef download(): return response.download(request,db)\ndef call(): return service()\n### end requires\ndef index():\n    comet_send(127.0.0.1, 'Someone has hit the site')\n    return dict(form=auth())\n\ndef clientdz():\n    text = request.post_vars['text']\n    return dict(test=text)\n\ndef error():\n    return dict()\n\n\nresponse._vars=response._caller(index)\n"
p6
sS'snapshot'
p7
(dp8
S'exception'
p9
(dp10
S'__getslice__'
p11
S"<method-wrapper '__getslice__' of exceptions.SyntaxError object>"
p12
sS'text'
p13
S'"    comet_send(127.0.0.1, \'Someone has hit the site\')\\n"'
p14
sS'__str__'
p15
S"<method-wrapper '__str__' of exceptions.SyntaxError object>"
p16
sS'__reduce__'
p17
S'<built-in method __reduce__ of exceptions.SyntaxError object>'
p18
sS'__dict__'
p19
S'{}'
p20
sS'__sizeof__'
p21
S'<built-in method __sizeof__ of exceptions.SyntaxError object>'
p22
sS'__init__'
p23
S"<method-wrapper '__init__' of exceptions.SyntaxError object>"
p24
sS'__setattr__'
p25
S"<method-wrapper '__setattr__' of exceptions.SyntaxError object>"
p26
sS'__reduce_ex__'
p27
S'<built-in method __reduce_ex__ of exceptions.SyntaxError object>'
p28
sS'__new__'
p29
S'<built-in method __new__ of type object>'
p30
sS'__format__'
p31
S'<built-in method __format__ of exceptions.SyntaxError object>'
p32
sS'__class__'
p33
S"<type 'exceptions.SyntaxError'>"
p34
sS'filename'
p35
S"'/Users/schultzc/Documents/[Buffer]Overflow/githu...ied/src/applications/fried/controllers/default.py'"
p36
sS'lineno'
p37
S'10'
p38
sS'msg'
p39
S"'invalid syntax'"
p40
sS'__doc__'
p41
S"'Invalid syntax.'"
p42
sS'__getitem__'
p43
S"<method-wrapper '__getitem__' of exceptions.SyntaxError object>"
p44
sS'__setstate__'
p45
S'<built-in method __setstate__ of exceptions.SyntaxError object>'
p46
sS'__getattribute__'
p47
S"<method-wrapper '__getattribute__' of exceptions.SyntaxError object>"
p48
sS'print_file_and_line'
p49
S'None'
p50
sS'args'
p51
S'(\'invalid syntax\', (\'/Users/schultzc/Documents/[Buffer]Overflow/githu...ied/src/applications/fried/controllers/default.py\', 10, 22, "    comet_send(127.0.0.1, \'Someone has hit the site\')\\n"))'
p52
sS'__subclasshook__'
p53
S'<built-in method __subclasshook__ of type object>'
p54
sS'offset'
p55
S'22'
p56
sS'__unicode__'
p57
S'<built-in method __unicode__ of exceptions.SyntaxError object>'
p58
sS'__delattr__'
p59
S"<method-wrapper '__delattr__' of exceptions.SyntaxError object>"
p60
sS'__repr__'
p61
S"<method-wrapper '__repr__' of exceptions.SyntaxError object>"
p62
sS'__hash__'
p63
S"<method-wrapper '__hash__' of exceptions.SyntaxError object>"
p64
ssS'evalue'
p65
S'invalid syntax (default.py, line 10)'
p66
sS'request'
p67
ccopy_reg
_reconstructor
p68
(cgluon.html
BEAUTIFY
p69
c__builtin__
object
p70
NtRp71
(dp72
S'attributes'
p73
(dp74
sS'components'
p75
(lp76
g68
(cgluon.html
TABLE
p77
g70
NtRp78
(dp79
g73
(dp80
S'level'
p81
I5
ssS'parent'
p82
Nsg75
(lp83
g68
(cgluon.html
TR
p84
g70
NtRp85
(dp86
g73
(dp87
sg82
g78
sg75
(lp88
g68
(cgluon.html
TD
p89
g70
NtRp90
(dp91
g73
(dp92
S'_style'
p93
S'font-weight:bold;'
p94
ssg82
g85
sg75
(lp95
S'ajax'
p96
asbag68
(g89
g70
NtRp97
(dp98
g73
(dp99
S'_valign'
p100
S'top'
p101
ssg82
g85
sg75
(lp102
S':'
asbag68
(g89
g70
NtRp103
(dp104
g73
(dp105
sg82
g85
sg75
(lp106
g68
(g69
g70
NtRp107
(dp108
g73
(dp109
g81
I5
ssg82
g103
sg75
(lp110
S'False'
p111
asbasbasbag68
(g84
g70
NtRp112
(dp113
g73
(dp114
sg82
g78
sg75
(lp115
g68
(g89
g70
NtRp116
(dp117
g73
(dp118
g93
g94
ssg82
g112
sg75
(lp119
S'application'
p120
asbag68
(g89
g70
NtRp121
(dp122
g73
(dp123
g100
g101
ssg82
g112
sg75
(lp124
S':'
asbag68
(g89
g70
NtRp125
(dp126
g73
(dp127
sg82
g112
sg75
(lp128
g68
(g69
g70
NtRp129
(dp130
g73
(dp131
g81
I5
ssg82
g125
sg75
(lp132
S'fried'
p133
asbasbasbag68
(g84
g70
NtRp134
(dp135
g73
(dp136
sg82
g78
sg75
(lp137
g68
(g89
g70
NtRp138
(dp139
g73
(dp140
g93
g94
ssg82
g134
sg75
(lp141
g51
asbag68
(g89
g70
NtRp142
(dp143
g73
(dp144
g100
g101
ssg82
g134
sg75
(lp145
S':'
asbag68
(g89
g70
NtRp146
(dp147
g73
(dp148
sg82
g134
sg75
(lp149
g68
(g69
g70
NtRp150
(dp151
g73
(dp152
g81
I5
ssg82
g146
sg75
(lp153
g68
(g77
g70
NtRp154
(dp155
g73
(dp156
g81
I4
ssg82
Nsg75
(lp157
g68
(g84
g70
NtRp158
(dp159
g73
(dp160
sg82
g154
sg75
(lp161
g68
(g89
g70
NtRp162
(dp163
g73
(dp164
sg82
g158
sg75
(lp165
g68
(g69
g70
NtRp166
(dp167
g73
(dp168
g81
I4
ssg82
g162
sg75
(lp169
S'login'
p170
asbasbasbasbasbasbasbag68
(g84
g70
NtRp171
(dp172
g73
(dp173
sg82
g78
sg75
(lp174
g68
(g89
g70
NtRp175
(dp176
g73
(dp177
g93
g94
ssg82
g171
sg75
(lp178
S'body'
p179
asbag68
(g89
g70
NtRp180
(dp181
g73
(dp182
g100
g101
ssg82
g171
sg75
(lp183
S':'
asbag68
(g89
g70
NtRp184
(dp185
g73
(dp186
sg82
g171
sg75
(lp187
g68
(g69
g70
NtRp188
(dp189
g73
(dp190
g81
I5
ssg82
g184
sg75
(lp191
S'<cStringIO.StringO object at 0x1080bd8b8>'
p192
asbasbasbag68
(g84
g70
NtRp193
(dp194
g73
(dp195
sg82
g78
sg75
(lp196
g68
(g89
g70
NtRp197
(dp198
g73
(dp199
g93
g94
ssg82
g193
sg75
(lp200
S'client'
p201
asbag68
(g89
g70
NtRp202
(dp203
g73
(dp204
g100
g101
ssg82
g193
sg75
(lp205
S':'
asbag68
(g89
g70
NtRp206
(dp207
g73
(dp208
sg82
g193
sg75
(lp209
g68
(g69
g70
NtRp210
(dp211
g73
(dp212
g81
I5
ssg82
g206
sg75
(lp213
S'127.0.0.1'
p214
asbasbasbag68
(g84
g70
NtRp215
(dp216
g73
(dp217
sg82
g78
sg75
(lp218
g68
(g89
g70
NtRp219
(dp220
g73
(dp221
g93
g94
ssg82
g215
sg75
(lp222
S'controller'
p223
asbag68
(g89
g70
NtRp224
(dp225
g73
(dp226
g100
g101
ssg82
g215
sg75
(lp227
S':'
asbag68
(g89
g70
NtRp228
(dp229
g73
(dp230
sg82
g215
sg75
(lp231
g68
(g69
g70
NtRp232
(dp233
g73
(dp234
g81
I5
ssg82
g228
sg75
(lp235
S'default'
p236
asbasbasbag68
(g84
g70
NtRp237
(dp238
g73
(dp239
sg82
g78
sg75
(lp240
g68
(g89
g70
NtRp241
(dp242
g73
(dp243
g93
g94
ssg82
g237
sg75
(lp244
S'cookies'
p245
asbag68
(g89
g70
NtRp246
(dp247
g73
(dp248
g100
g101
ssg82
g237
sg75
(lp249
S':'
asbag68
(g89
g70
NtRp250
(dp251
g73
(dp252
sg82
g237
sg75
(lp253
g68
(g69
g70
NtRp254
(dp255
g73
(dp256
g81
I5
ssg82
g250
sg75
(lp257
g68
(g77
g70
NtRp258
(dp259
g73
(dp260
g81
I4
ssg82
Nsg75
(lp261
g68
(g84
g70
NtRp262
(dp263
g73
(dp264
sg82
g258
sg75
(lp265
g68
(g89
g70
NtRp266
(dp267
g73
(dp268
g93
g94
ssg82
g262
sg75
(lp269
S'session_id_fried'
p270
asbag68
(g89
g70
NtRp271
(dp272
g73
(dp273
g100
g101
ssg82
g262
sg75
(lp274
S':'
asbag68
(g89
g70
NtRp275
(dp276
g73
(dp277
sg82
g262
sg75
(lp278
g68
(g69
g70
NtRp279
(dp280
g73
(dp281
g81
I4
ssg82
g275
sg75
(lp282
g68
(g77
g70
NtRp283
(dp284
g73
(dp285
g81
I3
ssg82
Nsg75
(lp286
g68
(g84
g70
NtRp287
(dp288
g73
(dp289
sg82
g283
sg75
(lp290
g68
(g89
g70
NtRp291
(dp292
g73
(dp293
g93
g94
ssg82
g287
sg75
(lp294
S'comment'
p295
asbag68
(g89
g70
NtRp296
(dp297
g73
(dp298
g100
g101
ssg82
g287
sg75
(lp299
S':'
asbag68
(g89
g70
NtRp300
(dp301
g73
(dp302
sg82
g287
sg75
(lp303
g68
(g69
g70
NtRp304
(dp305
g73
(dp306
g81
I3
ssg82
g300
sg75
(lp307
S''
asbasbasbag68
(g84
g70
NtRp308
(dp309
g73
(dp310
sg82
g283
sg75
(lp311
g68
(g89
g70
NtRp312
(dp313
g73
(dp314
g93
g94
ssg82
g308
sg75
(lp315
S'domain'
p316
asbag68
(g89
g70
NtRp317
(dp318
g73
(dp319
g100
g101
ssg82
g308
sg75
(lp320
S':'
asbag68
(g89
g70
NtRp321
(dp322
g73
(dp323
sg82
g308
sg75
(lp324
g68
(g69
g70
NtRp325
(dp326
g73
(dp327
g81
I3
ssg82
g321
sg75
(lp328
S''
asbasbasbag68
(g84
g70
NtRp329
(dp330
g73
(dp331
sg82
g283
sg75
(lp332
g68
(g89
g70
NtRp333
(dp334
g73
(dp335
g93
g94
ssg82
g329
sg75
(lp336
S'expires'
p337
asbag68
(g89
g70
NtRp338
(dp339
g73
(dp340
g100
g101
ssg82
g329
sg75
(lp341
S':'
asbag68
(g89
g70
NtRp342
(dp343
g73
(dp344
sg82
g329
sg75
(lp345
g68
(g69
g70
NtRp346
(dp347
g73
(dp348
g81
I3
ssg82
g342
sg75
(lp349
S''
asbasbasbag68
(g84
g70
NtRp350
(dp351
g73
(dp352
sg82
g283
sg75
(lp353
g68
(g89
g70
NtRp354
(dp355
g73
(dp356
g93
g94
ssg82
g350
sg75
(lp357
S'httponly'
p358
asbag68
(g89
g70
NtRp359
(dp360
g73
(dp361
g100
g101
ssg82
g350
sg75
(lp362
S':'
asbag68
(g89
g70
NtRp363
(dp364
g73
(dp365
sg82
g350
sg75
(lp366
g68
(g69
g70
NtRp367
(dp368
g73
(dp369
g81
I3
ssg82
g363
sg75
(lp370
S''
asbasbasbag68
(g84
g70
NtRp371
(dp372
g73
(dp373
sg82
g283
sg75
(lp374
g68
(g89
g70
NtRp375
(dp376
g73
(dp377
g93
g94
ssg82
g371
sg75
(lp378
S'max-age'
p379
asbag68
(g89
g70
NtRp380
(dp381
g73
(dp382
g100
g101
ssg82
g371
sg75
(lp383
S':'
asbag68
(g89
g70
NtRp384
(dp385
g73
(dp386
sg82
g371
sg75
(lp387
g68
(g69
g70
NtRp388
(dp389
g73
(dp390
g81
I3
ssg82
g384
sg75
(lp391
S''
asbasbasbag68
(g84
g70
NtRp392
(dp393
g73
(dp394
sg82
g283
sg75
(lp395
g68
(g89
g70
NtRp396
(dp397
g73
(dp398
g93
g94
ssg82
g392
sg75
(lp399
S'path'
p400
asbag68
(g89
g70
NtRp401
(dp402
g73
(dp403
g100
g101
ssg82
g392
sg75
(lp404
S':'
asbag68
(g89
g70
NtRp405
(dp406
g73
(dp407
sg82
g392
sg75
(lp408
g68
(g69
g70
NtRp409
(dp410
g73
(dp411
g81
I3
ssg82
g405
sg75
(lp412
S''
asbasbasbag68
(g84
g70
NtRp413
(dp414
g73
(dp415
sg82
g283
sg75
(lp416
g68
(g89
g70
NtRp417
(dp418
g73
(dp419
g93
g94
ssg82
g413
sg75
(lp420
S'secure'
p421
asbag68
(g89
g70
NtRp422
(dp423
g73
(dp424
g100
g101
ssg82
g413
sg75
(lp425
S':'
asbag68
(g89
g70
NtRp426
(dp427
g73
(dp428
sg82
g413
sg75
(lp429
g68
(g69
g70
NtRp430
(dp431
g73
(dp432
g81
I3
ssg82
g426
sg75
(lp433
S''
asbasbasbag68
(g84
g70
NtRp434
(dp435
g73
(dp436
sg82
g283
sg75
(lp437
g68
(g89
g70
NtRp438
(dp439
g73
(dp440
g93
g94
ssg82
g434
sg75
(lp441
S'version'
p442
asbag68
(g89
g70
NtRp443
(dp444
g73
(dp445
g100
g101
ssg82
g434
sg75
(lp446
S':'
asbag68
(g89
g70
NtRp447
(dp448
g73
(dp449
sg82
g434
sg75
(lp450
g68
(g69
g70
NtRp451
(dp452
g73
(dp453
g81
I3
ssg82
g447
sg75
(lp454
S''
asbasbasbasbasbasbasbasbasbasbasbag68
(g84
g70
NtRp455
(dp456
g73
(dp457
sg82
g78
sg75
(lp458
g68
(g89
g70
NtRp459
(dp460
g73
(dp461
g93
g94
ssg82
g455
sg75
(lp462
S'env'
p463
asbag68
(g89
g70
NtRp464
(dp465
g73
(dp466
g100
g101
ssg82
g455
sg75
(lp467
S':'
asbag68
(g89
g70
NtRp468
(dp469
g73
(dp470
sg82
g455
sg75
(lp471
g68
(g69
g70
NtRp472
(dp473
g73
(dp474
g81
I5
ssg82
g468
sg75
(lp475
g68
(g77
g70
NtRp476
(dp477
g73
(dp478
g81
I4
ssg82
Nsg75
(lp479
g68
(g84
g70
NtRp480
(dp481
g73
(dp482
sg82
g476
sg75
(lp483
g68
(g89
g70
NtRp484
(dp485
g73
(dp486
g93
g94
ssg82
g480
sg75
(lp487
S'app_folders'
p488
asbag68
(g89
g70
NtRp489
(dp490
g73
(dp491
g100
g101
ssg82
g480
sg75
(lp492
S':'
asbag68
(g89
g70
NtRp493
(dp494
g73
(dp495
sg82
g480
sg75
(lp496
g68
(g69
g70
NtRp497
(dp498
g73
(dp499
g81
I4
ssg82
g493
sg75
(lp500
S"set(['/Users/schultzc/Documents/[Buffer]Overflow/github/fried/src/applications/admin/', '/Users/schultzc/Documents/[Buffer]Overflow/github/fried/src/applications/welcome/', '/Users/schultzc/Documents/[Buffer]Overflow/github/fried/src/applications/fried/'])"
p501
asbasbasbag68
(g84
g70
NtRp502
(dp503
g73
(dp504
sg82
g476
sg75
(lp505
g68
(g89
g70
NtRp506
(dp507
g73
(dp508
g93
g94
ssg82
g502
sg75
(lp509
S'applications_parent'
p510
asbag68
(g89
g70
NtRp511
(dp512
g73
(dp513
g100
g101
ssg82
g502
sg75
(lp514
S':'
asbag68
(g89
g70
NtRp515
(dp516
g73
(dp517
sg82
g502
sg75
(lp518
g68
(g69
g70
NtRp519
(dp520
g73
(dp521
g81
I4
ssg82
g515
sg75
(lp522
S'/Users/schultzc/Documents/[Buffer]Overflow/github/fried/src'
p523
asbasbasbag68
(g84
g70
NtRp524
(dp525
g73
(dp526
sg82
g476
sg75
(lp527
g68
(g89
g70
NtRp528
(dp529
g73
(dp530
g93
g94
ssg82
g524
sg75
(lp531
S'cmd_args'
p532
asbag68
(g89
g70
NtRp533
(dp534
g73
(dp535
g100
g101
ssg82
g524
sg75
(lp536
S':'
asbag68
(g89
g70
NtRp537
(dp538
g73
(dp539
sg82
g524
sg75
(lp540
g68
(g69
g70
NtRp541
(dp542
g73
(dp543
g81
I4
ssg82
g537
sg75
(lp544
g68
(g77
g70
NtRp545
(dp546
g73
(dp547
g81
I3
ssg82
Nsg75
(lp548
sbasbasbasbag68
(g84
g70
NtRp549
(dp550
g73
(dp551
sg82
g476
sg75
(lp552
g68
(g89
g70
NtRp553
(dp554
g73
(dp555
g93
g94
ssg82
g549
sg75
(lp556
S'cmd_options'
p557
asbag68
(g89
g70
NtRp558
(dp559
g73
(dp560
g100
g101
ssg82
g549
sg75
(lp561
S':'
asbag68
(g89
g70
NtRp562
(dp563
g73
(dp564
sg82
g549
sg75
(lp565
g68
(g69
g70
NtRp566
(dp567
g73
(dp568
g81
I4
ssg82
g562
sg75
(lp569
S"<Values at 0x1018f3290: {'verbose': False, 'ip': '127.0.0.1', 'shutdown_timeout': 5, 'taskbar': False, 'nocron': False, 'pid_filename': 'httpserver.pid', 'maxthreads': None, 'softcron': False, 'server_name': 'Magnus-Specialis.local', 'bpython': False, 'nogui': False, 'port': 8000, 'extcron': False, 'debuglevel': 30, 'test': None, 'folder': '/Users/schultzc/Documents/[Buffer]Overflow/github/fried/src', 'config': '', 'import_models': False, 'winservice': '', 'shell': None, 'run': '', 'log_filename': 'httpserver.log', 'args': [''], 'ssl_ca_certificate': None, 'scheduler': None, 'profiler_filename': None, 'ssl_private_key': '', 'password': '<ask>', 'request_queue_size': 5, 'ssl_certificate': '', 'cronjob': False, 'plain': False, 'quiet': False, 'interfaces': None, 'minthreads': None, 'timeout': 10, 'numthreads': None, 'nobanner': False}>"
p570
asbasbasbag68
(g84
g70
NtRp571
(dp572
g73
(dp573
sg82
g476
sg75
(lp574
g68
(g89
g70
NtRp575
(dp576
g73
(dp577
g93
g94
ssg82
g571
sg75
(lp578
S'db_sessions'
p579
asbag68
(g89
g70
NtRp580
(dp581
g73
(dp582
g100
g101
ssg82
g571
sg75
(lp583
S':'
asbag68
(g89
g70
NtRp584
(dp585
g73
(dp586
sg82
g571
sg75
(lp587
g68
(g69
g70
NtRp588
(dp589
g73
(dp590
g81
I4
ssg82
g584
sg75
(lp591
S'set([])'
p592
asbasbasbag68
(g84
g70
NtRp593
(dp594
g73
(dp595
sg82
g476
sg75
(lp596
g68
(g89
g70
NtRp597
(dp598
g73
(dp599
g93
g94
ssg82
g593
sg75
(lp600
S'debugging'
p601
asbag68
(g89
g70
NtRp602
(dp603
g73
(dp604
g100
g101
ssg82
g593
sg75
(lp605
S':'
asbag68
(g89
g70
NtRp606
(dp607
g73
(dp608
sg82
g593
sg75
(lp609
g68
(g69
g70
NtRp610
(dp611
g73
(dp612
g81
I4
ssg82
g606
sg75
(lp613
g111
asbasbasbag68
(g84
g70
NtRp614
(dp615
g73
(dp616
sg82
g476
sg75
(lp617
g68
(g89
g70
NtRp618
(dp619
g73
(dp620
g93
g94
ssg82
g614
sg75
(lp621
S'gluon_parent'
p622
asbag68
(g89
g70
NtRp623
(dp624
g73
(dp625
g100
g101
ssg82
g614
sg75
(lp626
S':'
asbag68
(g89
g70
NtRp627
(dp628
g73
(dp629
sg82
g614
sg75
(lp630
g68
(g69
g70
NtRp631
(dp632
g73
(dp633
g81
I4
ssg82
g627
sg75
(lp634
S'/Users/schultzc/Documents/[Buffer]Overflow/github/fried/src'
p635
asbasbasbag68
(g84
g70
NtRp636
(dp637
g73
(dp638
sg82
g476
sg75
(lp639
g68
(g89
g70
NtRp640
(dp641
g73
(dp642
g93
g94
ssg82
g636
sg75
(lp643
S'http_accept'
p644
asbag68
(g89
g70
NtRp645
(dp646
g73
(dp647
g100
g101
ssg82
g636
sg75
(lp648
S':'
asbag68
(g89
g70
NtRp649
(dp650
g73
(dp651
sg82
g636
sg75
(lp652
g68
(g69
g70
NtRp653
(dp654
g73
(dp655
g81
I4
ssg82
g649
sg75
(lp656
S'text/html,application/xhtml+xml,application/xml;q=0.9,*/*;q=0.8'
p657
asbasbasbag68
(g84
g70
NtRp658
(dp659
g73
(dp660
sg82
g476
sg75
(lp661
g68
(g89
g70
NtRp662
(dp663
g73
(dp664
g93
g94
ssg82
g658
sg75
(lp665
S'http_accept_charset'
p666
asbag68
(g89
g70
NtRp667
(dp668
g73
(dp669
g100
g101
ssg82
g658
sg75
(lp670
S':'
asbag68
(g89
g70
NtRp671
(dp672
g73
(dp673
sg82
g658
sg75
(lp674
g68
(g69
g70
NtRp675
(dp676
g73
(dp677
g81
I4
ssg82
g671
sg75
(lp678
S'ISO-8859-1,utf-8;q=0.7,*;q=0.3'
p679
asbasbasbag68
(g84
g70
NtRp680
(dp681
g73
(dp682
sg82
g476
sg75
(lp683
g68
(g89
g70
NtRp684
(dp685
g73
(dp686
g93
g94
ssg82
g680
sg75
(lp687
S'http_accept_encoding'
p688
asbag68
(g89
g70
NtRp689
(dp690
g73
(dp691
g100
g101
ssg82
g680
sg75
(lp692
S':'
asbag68
(g89
g70
NtRp693
(dp694
g73
(dp695
sg82
g680
sg75
(lp696
g68
(g69
g70
NtRp697
(dp698
g73
(dp699
g81
I4
ssg82
g693
sg75
(lp700
S'gzip,deflate,sdch'
p701
asbasbasbag68
(g84
g70
NtRp702
(dp703
g73
(dp704
sg82
g476
sg75
(lp705
g68
(g89
g70
NtRp706
(dp707
g73
(dp708
g93
g94
ssg82
g702
sg75
(lp709
S'http_accept_language'
p710
asbag68
(g89
g70
NtRp711
(dp712
g73
(dp713
g100
g101
ssg82
g702
sg75
(lp714
S':'
asbag68
(g89
g70
NtRp715
(dp716
g73
(dp717
sg82
g702
sg75
(lp718
g68
(g69
g70
NtRp719
(dp720
g73
(dp721
g81
I4
ssg82
g715
sg75
(lp722
S'en-US,en;q=0.8'
p723
asbasbasbag68
(g84
g70
NtRp724
(dp725
g73
(dp726
sg82
g476
sg75
(lp727
g68
(g89
g70
NtRp728
(dp729
g73
(dp730
g93
g94
ssg82
g724
sg75
(lp731
S'http_cache_control'
p732
asbag68
(g89
g70
NtRp733
(dp734
g73
(dp735
g100
g101
ssg82
g724
sg75
(lp736
S':'
asbag68
(g89
g70
NtRp737
(dp738
g73
(dp739
sg82
g724
sg75
(lp740
g68
(g69
g70
NtRp741
(dp742
g73
(dp743
g81
I4
ssg82
g737
sg75
(lp744
S'max-age=0'
p745
asbasbasbag68
(g84
g70
NtRp746
(dp747
g73
(dp748
sg82
g476
sg75
(lp749
g68
(g89
g70
NtRp750
(dp751
g73
(dp752
g93
g94
ssg82
g746
sg75
(lp753
S'http_connection'
p754
asbag68
(g89
g70
NtRp755
(dp756
g73
(dp757
g100
g101
ssg82
g746
sg75
(lp758
S':'
asbag68
(g89
g70
NtRp759
(dp760
g73
(dp761
sg82
g746
sg75
(lp762
g68
(g69
g70
NtRp763
(dp764
g73
(dp765
g81
I4
ssg82
g759
sg75
(lp766
S'keep-alive'
p767
asbasbasbag68
(g84
g70
NtRp768
(dp769
g73
(dp770
sg82
g476
sg75
(lp771
g68
(g89
g70
NtRp772
(dp773
g73
(dp774
g93
g94
ssg82
g768
sg75
(lp775
S'http_cookie'
p776
asbag68
(g89
g70
NtRp777
(dp778
g73
(dp779
g100
g101
ssg82
g768
sg75
(lp780
S':'
asbag68
(g89
g70
NtRp781
(dp782
g73
(dp783
sg82
g768
sg75
(lp784
g68
(g69
g70
NtRp785
(dp786
g73
(dp787
g81
I4
ssg82
g781
sg75
(lp788
S'session_id_fried=127.0.0.1-fe56a172-a2db-4eda-9c6e-9ca46f2f1310'
p789
asbasbasbag68
(g84
g70
NtRp790
(dp791
g73
(dp792
sg82
g476
sg75
(lp793
g68
(g89
g70
NtRp794
(dp795
g73
(dp796
g93
g94
ssg82
g790
sg75
(lp797
S'http_host'
p798
asbag68
(g89
g70
NtRp799
(dp800
g73
(dp801
g100
g101
ssg82
g790
sg75
(lp802
S':'
asbag68
(g89
g70
NtRp803
(dp804
g73
(dp805
sg82
g790
sg75
(lp806
g68
(g69
g70
NtRp807
(dp808
g73
(dp809
g81
I4
ssg82
g803
sg75
(lp810
S'localhost:8000'
p811
asbasbasbag68
(g84
g70
NtRp812
(dp813
g73
(dp814
sg82
g476
sg75
(lp815
g68
(g89
g70
NtRp816
(dp817
g73
(dp818
g93
g94
ssg82
g812
sg75
(lp819
S'http_user_agent'
p820
asbag68
(g89
g70
NtRp821
(dp822
g73
(dp823
g100
g101
ssg82
g812
sg75
(lp824
S':'
asbag68
(g89
g70
NtRp825
(dp826
g73
(dp827
sg82
g812
sg75
(lp828
g68
(g69
g70
NtRp829
(dp830
g73
(dp831
g81
I4
ssg82
g825
sg75
(lp832
S'Mozilla/5.0 (Macintosh; Intel Mac OS X 10_7_2) AppleWebKit/535.2 (KHTML, like Gecko) Chrome/15.0.874.106 Safari/535.2'
p833
asbasbasbag68
(g84
g70
NtRp834
(dp835
g73
(dp836
sg82
g476
sg75
(lp837
g68
(g89
g70
NtRp838
(dp839
g73
(dp840
g93
g94
ssg82
g834
sg75
(lp841
S'is_jython'
p842
asbag68
(g89
g70
NtRp843
(dp844
g73
(dp845
g100
g101
ssg82
g834
sg75
(lp846
S':'
asbag68
(g89
g70
NtRp847
(dp848
g73
(dp849
sg82
g834
sg75
(lp850
g68
(g69
g70
NtRp851
(dp852
g73
(dp853
g81
I4
ssg82
g847
sg75
(lp854
g111
asbasbasbag68
(g84
g70
NtRp855
(dp856
g73
(dp857
sg82
g476
sg75
(lp858
g68
(g89
g70
NtRp859
(dp860
g73
(dp861
g93
g94
ssg82
g855
sg75
(lp862
S'path_info'
p863
asbag68
(g89
g70
NtRp864
(dp865
g73
(dp866
g100
g101
ssg82
g855
sg75
(lp867
S':'
asbag68
(g89
g70
NtRp868
(dp869
g73
(dp870
sg82
g855
sg75
(lp871
g68
(g69
g70
NtRp872
(dp873
g73
(dp874
g81
I4
ssg82
g868
sg75
(lp875
S'/fried/default/index/login'
p876
asbasbasbag68
(g84
g70
NtRp877
(dp878
g73
(dp879
sg82
g476
sg75
(lp880
g68
(g89
g70
NtRp881
(dp882
g73
(dp883
g93
g94
ssg82
g877
sg75
(lp884
S'query_string'
p885
asbag68
(g89
g70
NtRp886
(dp887
g73
(dp888
g100
g101
ssg82
g877
sg75
(lp889
S':'
asbag68
(g89
g70
NtRp890
(dp891
g73
(dp892
sg82
g877
sg75
(lp893
g68
(g69
g70
NtRp894
(dp895
g73
(dp896
g81
I4
ssg82
g890
sg75
(lp897
S''
asbasbasbag68
(g84
g70
NtRp898
(dp899
g73
(dp900
sg82
g476
sg75
(lp901
g68
(g89
g70
NtRp902
(dp903
g73
(dp904
g93
g94
ssg82
g898
sg75
(lp905
S'remote_addr'
p906
asbag68
(g89
g70
NtRp907
(dp908
g73
(dp909
g100
g101
ssg82
g898
sg75
(lp910
S':'
asbag68
(g89
g70
NtRp911
(dp912
g73
(dp913
sg82
g898
sg75
(lp914
g68
(g69
g70
NtRp915
(dp916
g73
(dp917
g81
I4
ssg82
g911
sg75
(lp918
g214
asbasbasbag68
(g84
g70
NtRp919
(dp920
g73
(dp921
sg82
g476
sg75
(lp922
g68
(g89
g70
NtRp923
(dp924
g73
(dp925
g93
g94
ssg82
g919
sg75
(lp926
S'remote_port'
p927
asbag68
(g89
g70
NtRp928
(dp929
g73
(dp930
g100
g101
ssg82
g919
sg75
(lp931
S':'
asbag68
(g89
g70
NtRp932
(dp933
g73
(dp934
sg82
g919
sg75
(lp935
g68
(g69
g70
NtRp936
(dp937
g73
(dp938
g81
I4
ssg82
g932
sg75
(lp939
S'65009'
p940
asbasbasbag68
(g84
g70
NtRp941
(dp942
g73
(dp943
sg82
g476
sg75
(lp944
g68
(g89
g70
NtRp945
(dp946
g73
(dp947
g93
g94
ssg82
g941
sg75
(lp948
S'request_method'
p949
asbag68
(g89
g70
NtRp950
(dp951
g73
(dp952
g100
g101
ssg82
g941
sg75
(lp953
S':'
asbag68
(g89
g70
NtRp954
(dp955
g73
(dp956
sg82
g941
sg75
(lp957
g68
(g69
g70
NtRp958
(dp959
g73
(dp960
g81
I4
ssg82
g954
sg75
(lp961
S'GET'
p962
asbasbasbag68
(g84
g70
NtRp963
(dp964
g73
(dp965
sg82
g476
sg75
(lp966
g68
(g89
g70
NtRp967
(dp968
g73
(dp969
g93
g94
ssg82
g963
sg75
(lp970
S'script_name'
p971
asbag68
(g89
g70
NtRp972
(dp973
g73
(dp974
g100
g101
ssg82
g963
sg75
(lp975
S':'
asbag68
(g89
g70
NtRp976
(dp977
g73
(dp978
sg82
g963
sg75
(lp979
g68
(g69
g70
NtRp980
(dp981
g73
(dp982
g81
I4
ssg82
g976
sg75
(lp983
S''
asbasbasbag68
(g84
g70
NtRp984
(dp985
g73
(dp986
sg82
g476
sg75
(lp987
g68
(g89
g70
NtRp988
(dp989
g73
(dp990
g93
g94
ssg82
g984
sg75
(lp991
S'server_name'
p992
asbag68
(g89
g70
NtRp993
(dp994
g73
(dp995
g100
g101
ssg82
g984
sg75
(lp996
S':'
asbag68
(g89
g70
NtRp997
(dp998
g73
(dp999
sg82
g984
sg75
(lp1000
g68
(g69
g70
NtRp1001
(dp1002
g73
(dp1003
g81
I4
ssg82
g997
sg75
(lp1004
S'Magnus-Specialis.local'
p1005
asbasbasbag68
(g84
g70
NtRp1006
(dp1007
g73
(dp1008
sg82
g476
sg75
(lp1009
g68
(g89
g70
NtRp1010
(dp1011
g73
(dp1012
g93
g94
ssg82
g1006
sg75
(lp1013
S'server_port'
p1014
asbag68
(g89
g70
NtRp1015
(dp1016
g73
(dp1017
g100
g101
ssg82
g1006
sg75
(lp1018
S':'
asbag68
(g89
g70
NtRp1019
(dp1020
g73
(dp1021
sg82
g1006
sg75
(lp1022
g68
(g69
g70
NtRp1023
(dp1024
g73
(dp1025
g81
I4
ssg82
g1019
sg75
(lp1026
S'8000'
p1027
asbasbasbag68
(g84
g70
NtRp1028
(dp1029
g73
(dp1030
sg82
g476
sg75
(lp1031
g68
(g89
g70
NtRp1032
(dp1033
g73
(dp1034
g93
g94
ssg82
g1028
sg75
(lp1035
S'server_protocol'
p1036
asbag68
(g89
g70
NtRp1037
(dp1038
g73
(dp1039
g100
g101
ssg82
g1028
sg75
(lp1040
S':'
asbag68
(g89
g70
NtRp1041
(dp1042
g73
(dp1043
sg82
g1028
sg75
(lp1044
g68
(g69
g70
NtRp1045
(dp1046
g73
(dp1047
g81
I4
ssg82
g1041
sg75
(lp1048
S'HTTP/1.1'
p1049
asbasbasbag68
(g84
g70
NtRp1050
(dp1051
g73
(dp1052
sg82
g476
sg75
(lp1053
g68
(g89
g70
NtRp1054
(dp1055
g73
(dp1056
g93
g94
ssg82
g1050
sg75
(lp1057
S'server_software'
p1058
asbag68
(g89
g70
NtRp1059
(dp1060
g73
(dp1061
g100
g101
ssg82
g1050
sg75
(lp1062
S':'
asbag68
(g89
g70
NtRp1063
(dp1064
g73
(dp1065
sg82
g1050
sg75
(lp1066
g68
(g69
g70
NtRp1067
(dp1068
g73
(dp1069
g81
I4
ssg82
g1063
sg75
(lp1070
S'Rocket 1.2.4'
p1071
asbasbasbag68
(g84
g70
NtRp1072
(dp1073
g73
(dp1074
sg82
g476
sg75
(lp1075
g68
(g89
g70
NtRp1076
(dp1077
g73
(dp1078
g93
g94
ssg82
g1072
sg75
(lp1079
S'web2py_crontype'
p1080
asbag68
(g89
g70
NtRp1081
(dp1082
g73
(dp1083
g100
g101
ssg82
g1072
sg75
(lp1084
S':'
asbag68
(g89
g70
NtRp1085
(dp1086
g73
(dp1087
sg82
g1072
sg75
(lp1088
g68
(g69
g70
NtRp1089
(dp1090
g73
(dp1091
g81
I4
ssg82
g1085
sg75
(lp1092
S'hard'
p1093
asbasbasbag68
(g84
g70
NtRp1094
(dp1095
g73
(dp1096
sg82
g476
sg75
(lp1097
g68
(g89
g70
NtRp1098
(dp1099
g73
(dp1100
g93
g94
ssg82
g1094
sg75
(lp1101
S'web2py_path'
p1102
asbag68
(g89
g70
NtRp1103
(dp1104
g73
(dp1105
g100
g101
ssg82
g1094
sg75
(lp1106
S':'
asbag68
(g89
g70
NtRp1107
(dp1108
g73
(dp1109
sg82
g1094
sg75
(lp1110
g68
(g69
g70
NtRp1111
(dp1112
g73
(dp1113
g81
I4
ssg82
g1107
sg75
(lp1114
g523
asbasbasbag68
(g84
g70
NtRp1115
(dp1116
g73
(dp1117
sg82
g476
sg75
(lp1118
g68
(g89
g70
NtRp1119
(dp1120
g73
(dp1121
g93
g94
ssg82
g1115
sg75
(lp1122
S'web2py_version'
p1123
asbag68
(g89
g70
NtRp1124
(dp1125
g73
(dp1126
g100
g101
ssg82
g1115
sg75
(lp1127
S':'
asbag68
(g89
g70
NtRp1128
(dp1129
g73
(dp1130
sg82
g1115
sg75
(lp1131
g68
(g69
g70
NtRp1132
(dp1133
g73
(dp1134
g81
I4
ssg82
g1128
sg75
(lp1135
g68
(g77
g70
NtRp1136
(dp1137
g73
(dp1138
g81
I3
ssg82
Nsg75
(lp1139
g68
(g84
g70
NtRp1140
(dp1141
g73
(dp1142
sg82
g1136
sg75
(lp1143
g68
(g89
g70
NtRp1144
(dp1145
g73
(dp1146
sg82
g1140
sg75
(lp1147
g68
(g69
g70
NtRp1148
(dp1149
g73
(dp1150
g81
I3
ssg82
g1144
sg75
(lp1151
S'1'
asbasbasbag68
(g84
g70
NtRp1152
(dp1153
g73
(dp1154
sg82
g1136
sg75
(lp1155
g68
(g89
g70
NtRp1156
(dp1157
g73
(dp1158
sg82
g1152
sg75
(lp1159
g68
(g69
g70
NtRp1160
(dp1161
g73
(dp1162
g81
I3
ssg82
g1156
sg75
(lp1163
S'99'
p1164
asbasbasbag68
(g84
g70
NtRp1165
(dp1166
g73
(dp1167
sg82
g1136
sg75
(lp1168
g68
(g89
g70
NtRp1169
(dp1170
g73
(dp1171
sg82
g1165
sg75
(lp1172
g68
(g69
g70
NtRp1173
(dp1174
g73
(dp1175
g81
I3
ssg82
g1169
sg75
(lp1176
S'2'
asbasbasbag68
(g84
g70
NtRp1177
(dp1178
g73
(dp1179
sg82
g1136
sg75
(lp1180
g68
(g89
g70
NtRp1181
(dp1182
g73
(dp1183
sg82
g1177
sg75
(lp1184
g68
(g69
g70
NtRp1185
(dp1186
g73
(dp1187
g81
I3
ssg82
g1181
sg75
(lp1188
S'datetime.datetime(2011, 9, 26, 6, 55, 33)'
p1189
asbasbasbag68
(g84
g70
NtRp1190
(dp1191
g73
(dp1192
sg82
g1136
sg75
(lp1193
g68
(g89
g70
NtRp1194
(dp1195
g73
(dp1196
sg82
g1190
sg75
(lp1197
g68
(g69
g70
NtRp1198
(dp1199
g73
(dp1200
g81
I3
ssg82
g1194
sg75
(lp1201
S'stable'
p1202
asbasbasbasbasbasbasbag68
(g84
g70
NtRp1203
(dp1204
g73
(dp1205
sg82
g476
sg75
(lp1206
g68
(g89
g70
NtRp1207
(dp1208
g73
(dp1209
g93
g94
ssg82
g1203
sg75
(lp1210
S'wsgi_errors'
p1211
asbag68
(g89
g70
NtRp1212
(dp1213
g73
(dp1214
g100
g101
ssg82
g1203
sg75
(lp1215
S':'
asbag68
(g89
g70
NtRp1216
(dp1217
g73
(dp1218
sg82
g1203
sg75
(lp1219
g68
(g69
g70
NtRp1220
(dp1221
g73
(dp1222
g81
I4
ssg82
g1216
sg75
(lp1223
S"<open file '<stderr>', mode 'w' at 0x100281270>"
p1224
asbasbasbag68
(g84
g70
NtRp1225
(dp1226
g73
(dp1227
sg82
g476
sg75
(lp1228
g68
(g89
g70
NtRp1229
(dp1230
g73
(dp1231
g93
g94
ssg82
g1225
sg75
(lp1232
S'wsgi_file_wrapper'
p1233
asbag68
(g89
g70
NtRp1234
(dp1235
g73
(dp1236
g100
g101
ssg82
g1225
sg75
(lp1237
S':'
asbag68
(g89
g70
NtRp1238
(dp1239
g73
(dp1240
sg82
g1225
sg75
(lp1241
g68
(g69
g70
NtRp1242
(dp1243
g73
(dp1244
g81
I4
ssg82
g1238
sg75
(lp1245
S'<class wsgiref.util.FileWrapper at 0x1016d8db8>'
p1246
asbasbasbag68
(g84
g70
NtRp1247
(dp1248
g73
(dp1249
sg82
g476
sg75
(lp1250
g68
(g89
g70
NtRp1251
(dp1252
g73
(dp1253
g93
g94
ssg82
g1247
sg75
(lp1254
S'wsgi_input'
p1255
asbag68
(g89
g70
NtRp1256
(dp1257
g73
(dp1258
g100
g101
ssg82
g1247
sg75
(lp1259
S':'
asbag68
(g89
g70
NtRp1260
(dp1261
g73
(dp1262
sg82
g1247
sg75
(lp1263
g68
(g69
g70
NtRp1264
(dp1265
g73
(dp1266
g81
I4
ssg82
g1260
sg75
(lp1267
S'<socket._fileobject object at 0x10804e050>'
p1268
asbasbasbag68
(g84
g70
NtRp1269
(dp1270
g73
(dp1271
sg82
g476
sg75
(lp1272
g68
(g89
g70
NtRp1273
(dp1274
g73
(dp1275
g93
g94
ssg82
g1269
sg75
(lp1276
S'wsgi_multiprocess'
p1277
asbag68
(g89
g70
NtRp1278
(dp1279
g73
(dp1280
g100
g101
ssg82
g1269
sg75
(lp1281
S':'
asbag68
(g89
g70
NtRp1282
(dp1283
g73
(dp1284
sg82
g1269
sg75
(lp1285
g68
(g69
g70
NtRp1286
(dp1287
g73
(dp1288
g81
I4
ssg82
g1282
sg75
(lp1289
g111
asbasbasbag68
(g84
g70
NtRp1290
(dp1291
g73
(dp1292
sg82
g476
sg75
(lp1293
g68
(g89
g70
NtRp1294
(dp1295
g73
(dp1296
g93
g94
ssg82
g1290
sg75
(lp1297
S'wsgi_multithread'
p1298
asbag68
(g89
g70
NtRp1299
(dp1300
g73
(dp1301
g100
g101
ssg82
g1290
sg75
(lp1302
S':'
asbag68
(g89
g70
NtRp1303
(dp1304
g73
(dp1305
sg82
g1290
sg75
(lp1306
g68
(g69
g70
NtRp1307
(dp1308
g73
(dp1309
g81
I4
ssg82
g1303
sg75
(lp1310
S'True'
p1311
asbasbasbag68
(g84
g70
NtRp1312
(dp1313
g73
(dp1314
sg82
g476
sg75
(lp1315
g68
(g89
g70
NtRp1316
(dp1317
g73
(dp1318
g93
g94
ssg82
g1312
sg75
(lp1319
S'wsgi_run_once'
p1320
asbag68
(g89
g70
NtRp1321
(dp1322
g73
(dp1323
g100
g101
ssg82
g1312
sg75
(lp1324
S':'
asbag68
(g89
g70
NtRp1325
(dp1326
g73
(dp1327
sg82
g1312
sg75
(lp1328
g68
(g69
g70
NtRp1329
(dp1330
g73
(dp1331
g81
I4
ssg82
g1325
sg75
(lp1332
g111
asbasbasbag68
(g84
g70
NtRp1333
(dp1334
g73
(dp1335
sg82
g476
sg75
(lp1336
g68
(g89
g70
NtRp1337
(dp1338
g73
(dp1339
g93
g94
ssg82
g1333
sg75
(lp1340
S'wsgi_url_scheme'
p1341
asbag68
(g89
g70
NtRp1342
(dp1343
g73
(dp1344
g100
g101
ssg82
g1333
sg75
(lp1345
S':'
asbag68
(g89
g70
NtRp1346
(dp1347
g73
(dp1348
sg82
g1333
sg75
(lp1349
g68
(g69
g70
NtRp1350
(dp1351
g73
(dp1352
g81
I4
ssg82
g1346
sg75
(lp1353
S'http'
p1354
asbasbasbag68
(g84
g70
NtRp1355
(dp1356
g73
(dp1357
sg82
g476
sg75
(lp1358
g68
(g89
g70
NtRp1359
(dp1360
g73
(dp1361
g93
g94
ssg82
g1355
sg75
(lp1362
S'wsgi_version'
p1363
asbag68
(g89
g70
NtRp1364
(dp1365
g73
(dp1366
g100
g101
ssg82
g1355
sg75
(lp1367
S':'
asbag68
(g89
g70
NtRp1368
(dp1369
g73
(dp1370
sg82
g1355
sg75
(lp1371
g68
(g69
g70
NtRp1372
(dp1373
g73
(dp1374
g81
I4
ssg82
g1368
sg75
(lp1375
g68
(g77
g70
NtRp1376
(dp1377
g73
(dp1378
g81
I3
ssg82
Nsg75
(lp1379
g68
(g84
g70
NtRp1380
(dp1381
g73
(dp1382
sg82
g1376
sg75
(lp1383
g68
(g89
g70
NtRp1384
(dp1385
g73
(dp1386
sg82
g1380
sg75
(lp1387
g68
(g69
g70
NtRp1388
(dp1389
g73
(dp1390
g81
I3
ssg82
g1384
sg75
(lp1391
S'1'
asbasbasbag68
(g84
g70
NtRp1392
(dp1393
g73
(dp1394
sg82
g1376
sg75
(lp1395
g68
(g89
g70
NtRp1396
(dp1397
g73
(dp1398
sg82
g1392
sg75
(lp1399
g68
(g69
g70
NtRp1400
(dp1401
g73
(dp1402
g81
I3
ssg82
g1396
sg75
(lp1403
S'0'
asbasbasbasbasbasbasbasbasbasbasbag68
(g84
g70
NtRp1404
(dp1405
g73
(dp1406
sg82
g78
sg75
(lp1407
g68
(g89
g70
NtRp1408
(dp1409
g73
(dp1410
g93
g94
ssg82
g1404
sg75
(lp1411
S'extension'
p1412
asbag68
(g89
g70
NtRp1413
(dp1414
g73
(dp1415
g100
g101
ssg82
g1404
sg75
(lp1416
S':'
asbag68
(g89
g70
NtRp1417
(dp1418
g73
(dp1419
sg82
g1404
sg75
(lp1420
g68
(g69
g70
NtRp1421
(dp1422
g73
(dp1423
g81
I5
ssg82
g1417
sg75
(lp1424
S'html'
p1425
asbasbasbag68
(g84
g70
NtRp1426
(dp1427
g73
(dp1428
sg82
g78
sg75
(lp1429
g68
(g89
g70
NtRp1430
(dp1431
g73
(dp1432
g93
g94
ssg82
g1426
sg75
(lp1433
S'folder'
p1434
asbag68
(g89
g70
NtRp1435
(dp1436
g73
(dp1437
g100
g101
ssg82
g1426
sg75
(lp1438
S':'
asbag68
(g89
g70
NtRp1439
(dp1440
g73
(dp1441
sg82
g1426
sg75
(lp1442
g68
(g69
g70
NtRp1443
(dp1444
g73
(dp1445
g81
I5
ssg82
g1439
sg75
(lp1446
S'/Users/schultzc/Documents/[Buffer]Overflow/github/fried/src/applications/fried/'
p1447
asbasbasbag68
(g84
g70
NtRp1448
(dp1449
g73
(dp1450
sg82
g78
sg75
(lp1451
g68
(g89
g70
NtRp1452
(dp1453
g73
(dp1454
g93
g94
ssg82
g1448
sg75
(lp1455
S'function'
p1456
asbag68
(g89
g70
NtRp1457
(dp1458
g73
(dp1459
g100
g101
ssg82
g1448
sg75
(lp1460
S':'
asbag68
(g89
g70
NtRp1461
(dp1462
g73
(dp1463
sg82
g1448
sg75
(lp1464
g68
(g69
g70
NtRp1465
(dp1466
g73
(dp1467
g81
I5
ssg82
g1461
sg75
(lp1468
S'index'
p1469
asbasbasbag68
(g84
g70
NtRp1470
(dp1471
g73
(dp1472
sg82
g78
sg75
(lp1473
g68
(g89
g70
NtRp1474
(dp1475
g73
(dp1476
g93
g94
ssg82
g1470
sg75
(lp1477
S'get_vars'
p1478
asbag68
(g89
g70
NtRp1479
(dp1480
g73
(dp1481
g100
g101
ssg82
g1470
sg75
(lp1482
S':'
asbag68
(g89
g70
NtRp1483
(dp1484
g73
(dp1485
sg82
g1470
sg75
(lp1486
g68
(g69
g70
NtRp1487
(dp1488
g73
(dp1489
g81
I5
ssg82
g1483
sg75
(lp1490
g68
(g77
g70
NtRp1491
(dp1492
g73
(dp1493
g81
I4
ssg82
Nsg75
(lp1494
sbasbasbasbag68
(g84
g70
NtRp1495
(dp1496
g73
(dp1497
sg82
g78
sg75
(lp1498
g68
(g89
g70
NtRp1499
(dp1500
g73
(dp1501
g93
g94
ssg82
g1495
sg75
(lp1502
S'global_settings'
p1503
asbag68
(g89
g70
NtRp1504
(dp1505
g73
(dp1506
g100
g101
ssg82
g1495
sg75
(lp1507
S':'
asbag68
(g89
g70
NtRp1508
(dp1509
g73
(dp1510
sg82
g1495
sg75
(lp1511
g68
(g69
g70
NtRp1512
(dp1513
g73
(dp1514
g81
I5
ssg82
g1508
sg75
(lp1515
g68
(g77
g70
NtRp1516
(dp1517
g73
(dp1518
g81
I4
ssg82
Nsg75
(lp1519
g68
(g84
g70
NtRp1520
(dp1521
g73
(dp1522
sg82
g1516
sg75
(lp1523
g68
(g89
g70
NtRp1524
(dp1525
g73
(dp1526
g93
g94
ssg82
g1520
sg75
(lp1527
g488
asbag68
(g89
g70
NtRp1528
(dp1529
g73
(dp1530
g100
g101
ssg82
g1520
sg75
(lp1531
S':'
asbag68
(g89
g70
NtRp1532
(dp1533
g73
(dp1534
sg82
g1520
sg75
(lp1535
g68
(g69
g70
NtRp1536
(dp1537
g73
(dp1538
g81
I4
ssg82
g1532
sg75
(lp1539
S"set(['/Users/schultzc/Documents/[Buffer]Overflow/github/fried/src/applications/admin/', '/Users/schultzc/Documents/[Buffer]Overflow/github/fried/src/applications/welcome/', '/Users/schultzc/Documents/[Buffer]Overflow/github/fried/src/applications/fried/'])"
p1540
asbasbasbag68
(g84
g70
NtRp1541
(dp1542
g73
(dp1543
sg82
g1516
sg75
(lp1544
g68
(g89
g70
NtRp1545
(dp1546
g73
(dp1547
g93
g94
ssg82
g1541
sg75
(lp1548
g510
asbag68
(g89
g70
NtRp1549
(dp1550
g73
(dp1551
g100
g101
ssg82
g1541
sg75
(lp1552
S':'
asbag68
(g89
g70
NtRp1553
(dp1554
g73
(dp1555
sg82
g1541
sg75
(lp1556
g68
(g69
g70
NtRp1557
(dp1558
g73
(dp1559
g81
I4
ssg82
g1553
sg75
(lp1560
g523
asbasbasbag68
(g84
g70
NtRp1561
(dp1562
g73
(dp1563
sg82
g1516
sg75
(lp1564
g68
(g89
g70
NtRp1565
(dp1566
g73
(dp1567
g93
g94
ssg82
g1561
sg75
(lp1568
g532
asbag68
(g89
g70
NtRp1569
(dp1570
g73
(dp1571
g100
g101
ssg82
g1561
sg75
(lp1572
S':'
asbag68
(g89
g70
NtRp1573
(dp1574
g73
(dp1575
sg82
g1561
sg75
(lp1576
g68
(g69
g70
NtRp1577
(dp1578
g73
(dp1579
g81
I4
ssg82
g1573
sg75
(lp1580
g68
(g77
g70
NtRp1581
(dp1582
g73
(dp1583
g81
I3
ssg82
Nsg75
(lp1584
sbasbasbasbag68
(g84
g70
NtRp1585
(dp1586
g73
(dp1587
sg82
g1516
sg75
(lp1588
g68
(g89
g70
NtRp1589
(dp1590
g73
(dp1591
g93
g94
ssg82
g1585
sg75
(lp1592
g557
asbag68
(g89
g70
NtRp1593
(dp1594
g73
(dp1595
g100
g101
ssg82
g1585
sg75
(lp1596
S':'
asbag68
(g89
g70
NtRp1597
(dp1598
g73
(dp1599
sg82
g1585
sg75
(lp1600
g68
(g69
g70
NtRp1601
(dp1602
g73
(dp1603
g81
I4
ssg82
g1597
sg75
(lp1604
S"<Values at 0x1018f3290: {'verbose': False, 'ip': '127.0.0.1', 'shutdown_timeout': 5, 'taskbar': False, 'nocron': False, 'pid_filename': 'httpserver.pid', 'maxthreads': None, 'softcron': False, 'server_name': 'Magnus-Specialis.local', 'bpython': False, 'nogui': False, 'port': 8000, 'extcron': False, 'debuglevel': 30, 'test': None, 'folder': '/Users/schultzc/Documents/[Buffer]Overflow/github/fried/src', 'config': '', 'import_models': False, 'winservice': '', 'shell': None, 'run': '', 'log_filename': 'httpserver.log', 'args': [''], 'ssl_ca_certificate': None, 'scheduler': None, 'profiler_filename': None, 'ssl_private_key': '', 'password': '<ask>', 'request_queue_size': 5, 'ssl_certificate': '', 'cronjob': False, 'plain': False, 'quiet': False, 'interfaces': None, 'minthreads': None, 'timeout': 10, 'numthreads': None, 'nobanner': False}>"
p1605
asbasbasbag68
(g84
g70
NtRp1606
(dp1607
g73
(dp1608
sg82
g1516
sg75
(lp1609
g68
(g89
g70
NtRp1610
(dp1611
g73
(dp1612
g93
g94
ssg82
g1606
sg75
(lp1613
g579
asbag68
(g89
g70
NtRp1614
(dp1615
g73
(dp1616
g100
g101
ssg82
g1606
sg75
(lp1617
S':'
asbag68
(g89
g70
NtRp1618
(dp1619
g73
(dp1620
sg82
g1606
sg75
(lp1621
g68
(g69
g70
NtRp1622
(dp1623
g73
(dp1624
g81
I4
ssg82
g1618
sg75
(lp1625
S'set([])'
p1626
asbasbasbag68
(g84
g70
NtRp1627
(dp1628
g73
(dp1629
sg82
g1516
sg75
(lp1630
g68
(g89
g70
NtRp1631
(dp1632
g73
(dp1633
g93
g94
ssg82
g1627
sg75
(lp1634
g601
asbag68
(g89
g70
NtRp1635
(dp1636
g73
(dp1637
g100
g101
ssg82
g1627
sg75
(lp1638
S':'
asbag68
(g89
g70
NtRp1639
(dp1640
g73
(dp1641
sg82
g1627
sg75
(lp1642
g68
(g69
g70
NtRp1643
(dp1644
g73
(dp1645
g81
I4
ssg82
g1639
sg75
(lp1646
g111
asbasbasbag68
(g84
g70
NtRp1647
(dp1648
g73
(dp1649
sg82
g1516
sg75
(lp1650
g68
(g89
g70
NtRp1651
(dp1652
g73
(dp1653
g93
g94
ssg82
g1647
sg75
(lp1654
g622
asbag68
(g89
g70
NtRp1655
(dp1656
g73
(dp1657
g100
g101
ssg82
g1647
sg75
(lp1658
S':'
asbag68
(g89
g70
NtRp1659
(dp1660
g73
(dp1661
sg82
g1647
sg75
(lp1662
g68
(g69
g70
NtRp1663
(dp1664
g73
(dp1665
g81
I4
ssg82
g1659
sg75
(lp1666
g635
asbasbasbag68
(g84
g70
NtRp1667
(dp1668
g73
(dp1669
sg82
g1516
sg75
(lp1670
g68
(g89
g70
NtRp1671
(dp1672
g73
(dp1673
g93
g94
ssg82
g1667
sg75
(lp1674
g842
asbag68
(g89
g70
NtRp1675
(dp1676
g73
(dp1677
g100
g101
ssg82
g1667
sg75
(lp1678
S':'
asbag68
(g89
g70
NtRp1679
(dp1680
g73
(dp1681
sg82
g1667
sg75
(lp1682
g68
(g69
g70
NtRp1683
(dp1684
g73
(dp1685
g81
I4
ssg82
g1679
sg75
(lp1686
g111
asbasbasbag68
(g84
g70
NtRp1687
(dp1688
g73
(dp1689
sg82
g1516
sg75
(lp1690
g68
(g89
g70
NtRp1691
(dp1692
g73
(dp1693
g93
g94
ssg82
g1687
sg75
(lp1694
g1080
asbag68
(g89
g70
NtRp1695
(dp1696
g73
(dp1697
g100
g101
ssg82
g1687
sg75
(lp1698
S':'
asbag68
(g89
g70
NtRp1699
(dp1700
g73
(dp1701
sg82
g1687
sg75
(lp1702
g68
(g69
g70
NtRp1703
(dp1704
g73
(dp1705
g81
I4
ssg82
g1699
sg75
(lp1706
g1093
asbasbasbag68
(g84
g70
NtRp1707
(dp1708
g73
(dp1709
sg82
g1516
sg75
(lp1710
g68
(g89
g70
NtRp1711
(dp1712
g73
(dp1713
g93
g94
ssg82
g1707
sg75
(lp1714
g1123
asbag68
(g89
g70
NtRp1715
(dp1716
g73
(dp1717
g100
g101
ssg82
g1707
sg75
(lp1718
S':'
asbag68
(g89
g70
NtRp1719
(dp1720
g73
(dp1721
sg82
g1707
sg75
(lp1722
g68
(g69
g70
NtRp1723
(dp1724
g73
(dp1725
g81
I4
ssg82
g1719
sg75
(lp1726
g68
(g77
g70
NtRp1727
(dp1728
g73
(dp1729
g81
I3
ssg82
Nsg75
(lp1730
g68
(g84
g70
NtRp1731
(dp1732
g73
(dp1733
sg82
g1727
sg75
(lp1734
g68
(g89
g70
NtRp1735
(dp1736
g73
(dp1737
sg82
g1731
sg75
(lp1738
g68
(g69
g70
NtRp1739
(dp1740
g73
(dp1741
g81
I3
ssg82
g1735
sg75
(lp1742
S'1'
asbasbasbag68
(g84
g70
NtRp1743
(dp1744
g73
(dp1745
sg82
g1727
sg75
(lp1746
g68
(g89
g70
NtRp1747
(dp1748
g73
(dp1749
sg82
g1743
sg75
(lp1750
g68
(g69
g70
NtRp1751
(dp1752
g73
(dp1753
g81
I3
ssg82
g1747
sg75
(lp1754
S'99'
p1755
asbasbasbag68
(g84
g70
NtRp1756
(dp1757
g73
(dp1758
sg82
g1727
sg75
(lp1759
g68
(g89
g70
NtRp1760
(dp1761
g73
(dp1762
sg82
g1756
sg75
(lp1763
g68
(g69
g70
NtRp1764
(dp1765
g73
(dp1766
g81
I3
ssg82
g1760
sg75
(lp1767
S'2'
asbasbasbag68
(g84
g70
NtRp1768
(dp1769
g73
(dp1770
sg82
g1727
sg75
(lp1771
g68
(g89
g70
NtRp1772
(dp1773
g73
(dp1774
sg82
g1768
sg75
(lp1775
g68
(g69
g70
NtRp1776
(dp1777
g73
(dp1778
g81
I3
ssg82
g1772
sg75
(lp1779
S'datetime.datetime(2011, 9, 26, 6, 55, 33)'
p1780
asbasbasbag68
(g84
g70
NtRp1781
(dp1782
g73
(dp1783
sg82
g1727
sg75
(lp1784
g68
(g89
g70
NtRp1785
(dp1786
g73
(dp1787
sg82
g1781
sg75
(lp1788
g68
(g69
g70
NtRp1789
(dp1790
g73
(dp1791
g81
I3
ssg82
g1785
sg75
(lp1792
g1202
asbasbasbasbasbasbasbasbasbasbasbag68
(g84
g70
NtRp1793
(dp1794
g73
(dp1795
sg82
g78
sg75
(lp1796
g68
(g89
g70
NtRp1797
(dp1798
g73
(dp1799
g93
g94
ssg82
g1793
sg75
(lp1800
S'is_https'
p1801
asbag68
(g89
g70
NtRp1802
(dp1803
g73
(dp1804
g100
g101
ssg82
g1793
sg75
(lp1805
S':'
asbag68
(g89
g70
NtRp1806
(dp1807
g73
(dp1808
sg82
g1793
sg75
(lp1809
g68
(g69
g70
NtRp1810
(dp1811
g73
(dp1812
g81
I5
ssg82
g1806
sg75
(lp1813
g111
asbasbasbag68
(g84
g70
NtRp1814
(dp1815
g73
(dp1816
sg82
g78
sg75
(lp1817
g68
(g89
g70
NtRp1818
(dp1819
g73
(dp1820
g93
g94
ssg82
g1814
sg75
(lp1821
S'is_local'
p1822
asbag68
(g89
g70
NtRp1823
(dp1824
g73
(dp1825
g100
g101
ssg82
g1814
sg75
(lp1826
S':'
asbag68
(g89
g70
NtRp1827
(dp1828
g73
(dp1829
sg82
g1814
sg75
(lp1830
g68
(g69
g70
NtRp1831
(dp1832
g73
(dp1833
g81
I5
ssg82
g1827
sg75
(lp1834
g1311
asbasbasbag68
(g84
g70
NtRp1835
(dp1836
g73
(dp1837
sg82
g78
sg75
(lp1838
g68
(g89
g70
NtRp1839
(dp1840
g73
(dp1841
g93
g94
ssg82
g1835
sg75
(lp1842
S'is_restful'
p1843
asbag68
(g89
g70
NtRp1844
(dp1845
g73
(dp1846
g100
g101
ssg82
g1835
sg75
(lp1847
S':'
asbag68
(g89
g70
NtRp1848
(dp1849
g73
(dp1850
sg82
g1835
sg75
(lp1851
g68
(g69
g70
NtRp1852
(dp1853
g73
(dp1854
g81
I5
ssg82
g1848
sg75
(lp1855
g111
asbasbasbag68
(g84
g70
NtRp1856
(dp1857
g73
(dp1858
sg82
g78
sg75
(lp1859
g68
(g89
g70
NtRp1860
(dp1861
g73
(dp1862
g93
g94
ssg82
g1856
sg75
(lp1863
S'now'
p1864
asbag68
(g89
g70
NtRp1865
(dp1866
g73
(dp1867
g100
g101
ssg82
g1856
sg75
(lp1868
S':'
asbag68
(g89
g70
NtRp1869
(dp1870
g73
(dp1871
sg82
g1856
sg75
(lp1872
g68
(g69
g70
NtRp1873
(dp1874
g73
(dp1875
g81
I5
ssg82
g1869
sg75
(lp1876
S'datetime.datetime(2011, 11, 15, 22, 12, 52, 164836)'
p1877
asbasbasbag68
(g84
g70
NtRp1878
(dp1879
g73
(dp1880
sg82
g78
sg75
(lp1881
g68
(g89
g70
NtRp1882
(dp1883
g73
(dp1884
g93
g94
ssg82
g1878
sg75
(lp1885
S'post_vars'
p1886
asbag68
(g89
g70
NtRp1887
(dp1888
g73
(dp1889
g100
g101
ssg82
g1878
sg75
(lp1890
S':'
asbag68
(g89
g70
NtRp1891
(dp1892
g73
(dp1893
sg82
g1878
sg75
(lp1894
g68
(g69
g70
NtRp1895
(dp1896
g73
(dp1897
g81
I5
ssg82
g1891
sg75
(lp1898
g68
(g77
g70
NtRp1899
(dp1900
g73
(dp1901
g81
I4
ssg82
Nsg75
(lp1902
sbasbasbasbag68
(g84
g70
NtRp1903
(dp1904
g73
(dp1905
sg82
g78
sg75
(lp1906
g68
(g89
g70
NtRp1907
(dp1908
g73
(dp1909
g93
g94
ssg82
g1903
sg75
(lp1910
S'raw_args'
p1911
asbag68
(g89
g70
NtRp1912
(dp1913
g73
(dp1914
g100
g101
ssg82
g1903
sg75
(lp1915
S':'
asbag68
(g89
g70
NtRp1916
(dp1917
g73
(dp1918
sg82
g1903
sg75
(lp1919
g68
(g69
g70
NtRp1920
(dp1921
g73
(dp1922
g81
I5
ssg82
g1916
sg75
(lp1923
g170
asbasbasbag68
(g84
g70
NtRp1924
(dp1925
g73
(dp1926
sg82
g78
sg75
(lp1927
g68
(g89
g70
NtRp1928
(dp1929
g73
(dp1930
g93
g94
ssg82
g1924
sg75
(lp1931
S'url'
p1932
asbag68
(g89
g70
NtRp1933
(dp1934
g73
(dp1935
g100
g101
ssg82
g1924
sg75
(lp1936
S':'
asbag68
(g89
g70
NtRp1937
(dp1938
g73
(dp1939
sg82
g1924
sg75
(lp1940
g68
(g69
g70
NtRp1941
(dp1942
g73
(dp1943
g81
I5
ssg82
g1937
sg75
(lp1944
S'/fried/default/index/login'
p1945
asbasbasbag68
(g84
g70
NtRp1946
(dp1947
g73
(dp1948
sg82
g78
sg75
(lp1949
g68
(g89
g70
NtRp1950
(dp1951
g73
(dp1952
g93
g94
ssg82
g1946
sg75
(lp1953
S'utcnow'
p1954
asbag68
(g89
g70
NtRp1955
(dp1956
g73
(dp1957
g100
g101
ssg82
g1946
sg75
(lp1958
S':'
asbag68
(g89
g70
NtRp1959
(dp1960
g73
(dp1961
sg82
g1946
sg75
(lp1962
g68
(g69
g70
NtRp1963
(dp1964
g73
(dp1965
g81
I5
ssg82
g1959
sg75
(lp1966
S'datetime.datetime(2011, 11, 16, 5, 12, 52, 164861)'
p1967
asbasbasbag68
(g84
g70
NtRp1968
(dp1969
g73
(dp1970
sg82
g78
sg75
(lp1971
g68
(g89
g70
NtRp1972
(dp1973
g73
(dp1974
g93
g94
ssg82
g1968
sg75
(lp1975
S'uuid'
p1976
asbag68
(g89
g70
NtRp1977
(dp1978
g73
(dp1979
g100
g101
ssg82
g1968
sg75
(lp1980
S':'
asbag68
(g89
g70
NtRp1981
(dp1982
g73
(dp1983
sg82
g1968
sg75
(lp1984
g68
(g69
g70
NtRp1985
(dp1986
g73
(dp1987
g81
I5
ssg82
g1981
sg75
(lp1988
S'fried/127.0.0.1.2011-11-15.22-12-52.68b9467e-81ee-48b5-836f-dacd7531de3a'
p1989
asbasbasbag68
(g84
g70
NtRp1990
(dp1991
g73
(dp1992
sg82
g78
sg75
(lp1993
g68
(g89
g70
NtRp1994
(dp1995
g73
(dp1996
g93
g94
ssg82
g1990
sg75
(lp1997
S'vars'
p1998
asbag68
(g89
g70
NtRp1999
(dp2000
g73
(dp2001
g100
g101
ssg82
g1990
sg75
(lp2002
S':'
asbag68
(g89
g70
NtRp2003
(dp2004
g73
(dp2005
sg82
g1990
sg75
(lp2006
g68
(g69
g70
NtRp2007
(dp2008
g73
(dp2009
g81
I5
ssg82
g2003
sg75
(lp2010
g68
(g77
g70
NtRp2011
(dp2012
g73
(dp2013
g81
I4
ssg82
Nsg75
(lp2014
sbasbasbasbag68
(g84
g70
NtRp2015
(dp2016
g73
(dp2017
sg82
g78
sg75
(lp2018
g68
(g89
g70
NtRp2019
(dp2020
g73
(dp2021
g93
g94
ssg82
g2015
sg75
(lp2022
S'wsgi'
p2023
asbag68
(g89
g70
NtRp2024
(dp2025
g73
(dp2026
g100
g101
ssg82
g2015
sg75
(lp2027
S':'
asbag68
(g89
g70
NtRp2028
(dp2029
g73
(dp2030
sg82
g2015
sg75
(lp2031
g68
(g69
g70
NtRp2032
(dp2033
g73
(dp2034
g81
I5
ssg82
g2028
sg75
(lp2035
g68
(g77
g70
NtRp2036
(dp2037
g73
(dp2038
g81
I4
ssg82
Nsg75
(lp2039
g68
(g84
g70
NtRp2040
(dp2041
g73
(dp2042
sg82
g2036
sg75
(lp2043
g68
(g89
g70
NtRp2044
(dp2045
g73
(dp2046
g93
g94
ssg82
g2040
sg75
(lp2047
S'environ'
p2048
asbag68
(g89
g70
NtRp2049
(dp2050
g73
(dp2051
g100
g101
ssg82
g2040
sg75
(lp2052
S':'
asbag68
(g89
g70
NtRp2053
(dp2054
g73
(dp2055
sg82
g2040
sg75
(lp2056
g68
(g69
g70
NtRp2057
(dp2058
g73
(dp2059
g81
I4
ssg82
g2053
sg75
(lp2060
g68
(g77
g70
NtRp2061
(dp2062
g73
(dp2063
g81
I3
ssg82
Nsg75
(lp2064
g68
(g84
g70
NtRp2065
(dp2066
g73
(dp2067
sg82
g2061
sg75
(lp2068
g68
(g89
g70
NtRp2069
(dp2070
g73
(dp2071
g93
g94
ssg82
g2065
sg75
(lp2072
S'HTTP_ACCEPT'
p2073
asbag68
(g89
g70
NtRp2074
(dp2075
g73
(dp2076
g100
g101
ssg82
g2065
sg75
(lp2077
S':'
asbag68
(g89
g70
NtRp2078
(dp2079
g73
(dp2080
sg82
g2065
sg75
(lp2081
g68
(g69
g70
NtRp2082
(dp2083
g73
(dp2084
g81
I3
ssg82
g2078
sg75
(lp2085
g657
asbasbasbag68
(g84
g70
NtRp2086
(dp2087
g73
(dp2088
sg82
g2061
sg75
(lp2089
g68
(g89
g70
NtRp2090
(dp2091
g73
(dp2092
g93
g94
ssg82
g2086
sg75
(lp2093
S'HTTP_ACCEPT_CHARSET'
p2094
asbag68
(g89
g70
NtRp2095
(dp2096
g73
(dp2097
g100
g101
ssg82
g2086
sg75
(lp2098
S':'
asbag68
(g89
g70
NtRp2099
(dp2100
g73
(dp2101
sg82
g2086
sg75
(lp2102
g68
(g69
g70
NtRp2103
(dp2104
g73
(dp2105
g81
I3
ssg82
g2099
sg75
(lp2106
g679
asbasbasbag68
(g84
g70
NtRp2107
(dp2108
g73
(dp2109
sg82
g2061
sg75
(lp2110
g68
(g89
g70
NtRp2111
(dp2112
g73
(dp2113
g93
g94
ssg82
g2107
sg75
(lp2114
S'HTTP_ACCEPT_ENCODING'
p2115
asbag68
(g89
g70
NtRp2116
(dp2117
g73
(dp2118
g100
g101
ssg82
g2107
sg75
(lp2119
S':'
asbag68
(g89
g70
NtRp2120
(dp2121
g73
(dp2122
sg82
g2107
sg75
(lp2123
g68
(g69
g70
NtRp2124
(dp2125
g73
(dp2126
g81
I3
ssg82
g2120
sg75
(lp2127
g701
asbasbasbag68
(g84
g70
NtRp2128
(dp2129
g73
(dp2130
sg82
g2061
sg75
(lp2131
g68
(g89
g70
NtRp2132
(dp2133
g73
(dp2134
g93
g94
ssg82
g2128
sg75
(lp2135
S'HTTP_ACCEPT_LANGUAGE'
p2136
asbag68
(g89
g70
NtRp2137
(dp2138
g73
(dp2139
g100
g101
ssg82
g2128
sg75
(lp2140
S':'
asbag68
(g89
g70
NtRp2141
(dp2142
g73
(dp2143
sg82
g2128
sg75
(lp2144
g68
(g69
g70
NtRp2145
(dp2146
g73
(dp2147
g81
I3
ssg82
g2141
sg75
(lp2148
g723
asbasbasbag68
(g84
g70
NtRp2149
(dp2150
g73
(dp2151
sg82
g2061
sg75
(lp2152
g68
(g89
g70
NtRp2153
(dp2154
g73
(dp2155
g93
g94
ssg82
g2149
sg75
(lp2156
S'HTTP_CACHE_CONTROL'
p2157
asbag68
(g89
g70
NtRp2158
(dp2159
g73
(dp2160
g100
g101
ssg82
g2149
sg75
(lp2161
S':'
asbag68
(g89
g70
NtRp2162
(dp2163
g73
(dp2164
sg82
g2149
sg75
(lp2165
g68
(g69
g70
NtRp2166
(dp2167
g73
(dp2168
g81
I3
ssg82
g2162
sg75
(lp2169
g745
asbasbasbag68
(g84
g70
NtRp2170
(dp2171
g73
(dp2172
sg82
g2061
sg75
(lp2173
g68
(g89
g70
NtRp2174
(dp2175
g73
(dp2176
g93
g94
ssg82
g2170
sg75
(lp2177
S'HTTP_CONNECTION'
p2178
asbag68
(g89
g70
NtRp2179
(dp2180
g73
(dp2181
g100
g101
ssg82
g2170
sg75
(lp2182
S':'
asbag68
(g89
g70
NtRp2183
(dp2184
g73
(dp2185
sg82
g2170
sg75
(lp2186
g68
(g69
g70
NtRp2187
(dp2188
g73
(dp2189
g81
I3
ssg82
g2183
sg75
(lp2190
g767
asbasbasbag68
(g84
g70
NtRp2191
(dp2192
g73
(dp2193
sg82
g2061
sg75
(lp2194
g68
(g89
g70
NtRp2195
(dp2196
g73
(dp2197
g93
g94
ssg82
g2191
sg75
(lp2198
S'HTTP_COOKIE'
p2199
asbag68
(g89
g70
NtRp2200
(dp2201
g73
(dp2202
g100
g101
ssg82
g2191
sg75
(lp2203
S':'
asbag68
(g89
g70
NtRp2204
(dp2205
g73
(dp2206
sg82
g2191
sg75
(lp2207
g68
(g69
g70
NtRp2208
(dp2209
g73
(dp2210
g81
I3
ssg82
g2204
sg75
(lp2211
g789
asbasbasbag68
(g84
g70
NtRp2212
(dp2213
g73
(dp2214
sg82
g2061
sg75
(lp2215
g68
(g89
g70
NtRp2216
(dp2217
g73
(dp2218
g93
g94
ssg82
g2212
sg75
(lp2219
S'HTTP_HOST'
p2220
asbag68
(g89
g70
NtRp2221
(dp2222
g73
(dp2223
g100
g101
ssg82
g2212
sg75
(lp2224
S':'
asbag68
(g89
g70
NtRp2225
(dp2226
g73
(dp2227
sg82
g2212
sg75
(lp2228
g68
(g69
g70
NtRp2229
(dp2230
g73
(dp2231
g81
I3
ssg82
g2225
sg75
(lp2232
g811
asbasbasbag68
(g84
g70
NtRp2233
(dp2234
g73
(dp2235
sg82
g2061
sg75
(lp2236
g68
(g89
g70
NtRp2237
(dp2238
g73
(dp2239
g93
g94
ssg82
g2233
sg75
(lp2240
S'HTTP_USER_AGENT'
p2241
asbag68
(g89
g70
NtRp2242
(dp2243
g73
(dp2244
g100
g101
ssg82
g2233
sg75
(lp2245
S':'
asbag68
(g89
g70
NtRp2246
(dp2247
g73
(dp2248
sg82
g2233
sg75
(lp2249
g68
(g69
g70
NtRp2250
(dp2251
g73
(dp2252
g81
I3
ssg82
g2246
sg75
(lp2253
g833
asbasbasbag68
(g84
g70
NtRp2254
(dp2255
g73
(dp2256
sg82
g2061
sg75
(lp2257
g68
(g89
g70
NtRp2258
(dp2259
g73
(dp2260
g93
g94
ssg82
g2254
sg75
(lp2261
S'PATH_INFO'
p2262
asbag68
(g89
g70
NtRp2263
(dp2264
g73
(dp2265
g100
g101
ssg82
g2254
sg75
(lp2266
S':'
asbag68
(g89
g70
NtRp2267
(dp2268
g73
(dp2269
sg82
g2254
sg75
(lp2270
g68
(g69
g70
NtRp2271
(dp2272
g73
(dp2273
g81
I3
ssg82
g2267
sg75
(lp2274
g876
asbasbasbag68
(g84
g70
NtRp2275
(dp2276
g73
(dp2277
sg82
g2061
sg75
(lp2278
g68
(g89
g70
NtRp2279
(dp2280
g73
(dp2281
g93
g94
ssg82
g2275
sg75
(lp2282
S'QUERY_STRING'
p2283
asbag68
(g89
g70
NtRp2284
(dp2285
g73
(dp2286
g100
g101
ssg82
g2275
sg75
(lp2287
S':'
asbag68
(g89
g70
NtRp2288
(dp2289
g73
(dp2290
sg82
g2275
sg75
(lp2291
g68
(g69
g70
NtRp2292
(dp2293
g73
(dp2294
g81
I3
ssg82
g2288
sg75
(lp2295
S''
asbasbasbag68
(g84
g70
NtRp2296
(dp2297
g73
(dp2298
sg82
g2061
sg75
(lp2299
g68
(g89
g70
NtRp2300
(dp2301
g73
(dp2302
g93
g94
ssg82
g2296
sg75
(lp2303
S'REMOTE_ADDR'
p2304
asbag68
(g89
g70
NtRp2305
(dp2306
g73
(dp2307
g100
g101
ssg82
g2296
sg75
(lp2308
S':'
asbag68
(g89
g70
NtRp2309
(dp2310
g73
(dp2311
sg82
g2296
sg75
(lp2312
g68
(g69
g70
NtRp2313
(dp2314
g73
(dp2315
g81
I3
ssg82
g2309
sg75
(lp2316
g214
asbasbasbag68
(g84
g70
NtRp2317
(dp2318
g73
(dp2319
sg82
g2061
sg75
(lp2320
g68
(g89
g70
NtRp2321
(dp2322
g73
(dp2323
g93
g94
ssg82
g2317
sg75
(lp2324
S'REMOTE_PORT'
p2325
asbag68
(g89
g70
NtRp2326
(dp2327
g73
(dp2328
g100
g101
ssg82
g2317
sg75
(lp2329
S':'
asbag68
(g89
g70
NtRp2330
(dp2331
g73
(dp2332
sg82
g2317
sg75
(lp2333
g68
(g69
g70
NtRp2334
(dp2335
g73
(dp2336
g81
I3
ssg82
g2330
sg75
(lp2337
g940
asbasbasbag68
(g84
g70
NtRp2338
(dp2339
g73
(dp2340
sg82
g2061
sg75
(lp2341
g68
(g89
g70
NtRp2342
(dp2343
g73
(dp2344
g93
g94
ssg82
g2338
sg75
(lp2345
S'REQUEST_METHOD'
p2346
asbag68
(g89
g70
NtRp2347
(dp2348
g73
(dp2349
g100
g101
ssg82
g2338
sg75
(lp2350
S':'
asbag68
(g89
g70
NtRp2351
(dp2352
g73
(dp2353
sg82
g2338
sg75
(lp2354
g68
(g69
g70
NtRp2355
(dp2356
g73
(dp2357
g81
I3
ssg82
g2351
sg75
(lp2358
g962
asbasbasbag68
(g84
g70
NtRp2359
(dp2360
g73
(dp2361
sg82
g2061
sg75
(lp2362
g68
(g89
g70
NtRp2363
(dp2364
g73
(dp2365
g93
g94
ssg82
g2359
sg75
(lp2366
S'SCRIPT_NAME'
p2367
asbag68
(g89
g70
NtRp2368
(dp2369
g73
(dp2370
g100
g101
ssg82
g2359
sg75
(lp2371
S':'
asbag68
(g89
g70
NtRp2372
(dp2373
g73
(dp2374
sg82
g2359
sg75
(lp2375
g68
(g69
g70
NtRp2376
(dp2377
g73
(dp2378
g81
I3
ssg82
g2372
sg75
(lp2379
S''
asbasbasbag68
(g84
g70
NtRp2380
(dp2381
g73
(dp2382
sg82
g2061
sg75
(lp2383
g68
(g89
g70
NtRp2384
(dp2385
g73
(dp2386
g93
g94
ssg82
g2380
sg75
(lp2387
S'SERVER_NAME'
p2388
asbag68
(g89
g70
NtRp2389
(dp2390
g73
(dp2391
g100
g101
ssg82
g2380
sg75
(lp2392
S':'
asbag68
(g89
g70
NtRp2393
(dp2394
g73
(dp2395
sg82
g2380
sg75
(lp2396
g68
(g69
g70
NtRp2397
(dp2398
g73
(dp2399
g81
I3
ssg82
g2393
sg75
(lp2400
g1005
asbasbasbag68
(g84
g70
NtRp2401
(dp2402
g73
(dp2403
sg82
g2061
sg75
(lp2404
g68
(g89
g70
NtRp2405
(dp2406
g73
(dp2407
g93
g94
ssg82
g2401
sg75
(lp2408
S'SERVER_PORT'
p2409
asbag68
(g89
g70
NtRp2410
(dp2411
g73
(dp2412
g100
g101
ssg82
g2401
sg75
(lp2413
S':'
asbag68
(g89
g70
NtRp2414
(dp2415
g73
(dp2416
sg82
g2401
sg75
(lp2417
g68
(g69
g70
NtRp2418
(dp2419
g73
(dp2420
g81
I3
ssg82
g2414
sg75
(lp2421
g1027
asbasbasbag68
(g84
g70
NtRp2422
(dp2423
g73
(dp2424
sg82
g2061
sg75
(lp2425
g68
(g89
g70
NtRp2426
(dp2427
g73
(dp2428
g93
g94
ssg82
g2422
sg75
(lp2429
S'SERVER_PROTOCOL'
p2430
asbag68
(g89
g70
NtRp2431
(dp2432
g73
(dp2433
g100
g101
ssg82
g2422
sg75
(lp2434
S':'
asbag68
(g89
g70
NtRp2435
(dp2436
g73
(dp2437
sg82
g2422
sg75
(lp2438
g68
(g69
g70
NtRp2439
(dp2440
g73
(dp2441
g81
I3
ssg82
g2435
sg75
(lp2442
g1049
asbasbasbag68
(g84
g70
NtRp2443
(dp2444
g73
(dp2445
sg82
g2061
sg75
(lp2446
g68
(g89
g70
NtRp2447
(dp2448
g73
(dp2449
g93
g94
ssg82
g2443
sg75
(lp2450
S'SERVER_SOFTWARE'
p2451
asbag68
(g89
g70
NtRp2452
(dp2453
g73
(dp2454
g100
g101
ssg82
g2443
sg75
(lp2455
S':'
asbag68
(g89
g70
NtRp2456
(dp2457
g73
(dp2458
sg82
g2443
sg75
(lp2459
g68
(g69
g70
NtRp2460
(dp2461
g73
(dp2462
g81
I3
ssg82
g2456
sg75
(lp2463
g1071
asbasbasbag68
(g84
g70
NtRp2464
(dp2465
g73
(dp2466
sg82
g2061
sg75
(lp2467
g68
(g89
g70
NtRp2468
(dp2469
g73
(dp2470
g93
g94
ssg82
g2464
sg75
(lp2471
S'wsgi.errors'
p2472
asbag68
(g89
g70
NtRp2473
(dp2474
g73
(dp2475
g100
g101
ssg82
g2464
sg75
(lp2476
S':'
asbag68
(g89
g70
NtRp2477
(dp2478
g73
(dp2479
sg82
g2464
sg75
(lp2480
g68
(g69
g70
NtRp2481
(dp2482
g73
(dp2483
g81
I3
ssg82
g2477
sg75
(lp2484
S"<open file '<stderr>', mode 'w' at 0x100281270>"
p2485
asbasbasbag68
(g84
g70
NtRp2486
(dp2487
g73
(dp2488
sg82
g2061
sg75
(lp2489
g68
(g89
g70
NtRp2490
(dp2491
g73
(dp2492
g93
g94
ssg82
g2486
sg75
(lp2493
S'wsgi.file_wrapper'
p2494
asbag68
(g89
g70
NtRp2495
(dp2496
g73
(dp2497
g100
g101
ssg82
g2486
sg75
(lp2498
S':'
asbag68
(g89
g70
NtRp2499
(dp2500
g73
(dp2501
sg82
g2486
sg75
(lp2502
g68
(g69
g70
NtRp2503
(dp2504
g73
(dp2505
g81
I3
ssg82
g2499
sg75
(lp2506
S'<class wsgiref.util.FileWrapper at 0x1016d8db8>'
p2507
asbasbasbag68
(g84
g70
NtRp2508
(dp2509
g73
(dp2510
sg82
g2061
sg75
(lp2511
g68
(g89
g70
NtRp2512
(dp2513
g73
(dp2514
g93
g94
ssg82
g2508
sg75
(lp2515
S'wsgi.input'
p2516
asbag68
(g89
g70
NtRp2517
(dp2518
g73
(dp2519
g100
g101
ssg82
g2508
sg75
(lp2520
S':'
asbag68
(g89
g70
NtRp2521
(dp2522
g73
(dp2523
sg82
g2508
sg75
(lp2524
g68
(g69
g70
NtRp2525
(dp2526
g73
(dp2527
g81
I3
ssg82
g2521
sg75
(lp2528
S'<cStringIO.StringO object at 0x1080bd8b8>'
p2529
asbasbasbag68
(g84
g70
NtRp2530
(dp2531
g73
(dp2532
sg82
g2061
sg75
(lp2533
g68
(g89
g70
NtRp2534
(dp2535
g73
(dp2536
g93
g94
ssg82
g2530
sg75
(lp2537
S'wsgi.multiprocess'
p2538
asbag68
(g89
g70
NtRp2539
(dp2540
g73
(dp2541
g100
g101
ssg82
g2530
sg75
(lp2542
S':'
asbag68
(g89
g70
NtRp2543
(dp2544
g73
(dp2545
sg82
g2530
sg75
(lp2546
g68
(g69
g70
NtRp2547
(dp2548
g73
(dp2549
g81
I3
ssg82
g2543
sg75
(lp2550
g111
asbasbasbag68
(g84
g70
NtRp2551
(dp2552
g73
(dp2553
sg82
g2061
sg75
(lp2554
g68
(g89
g70
NtRp2555
(dp2556
g73
(dp2557
g93
g94
ssg82
g2551
sg75
(lp2558
S'wsgi.multithread'
p2559
asbag68
(g89
g70
NtRp2560
(dp2561
g73
(dp2562
g100
g101
ssg82
g2551
sg75
(lp2563
S':'
asbag68
(g89
g70
NtRp2564
(dp2565
g73
(dp2566
sg82
g2551
sg75
(lp2567
g68
(g69
g70
NtRp2568
(dp2569
g73
(dp2570
g81
I3
ssg82
g2564
sg75
(lp2571
g1311
asbasbasbag68
(g84
g70
NtRp2572
(dp2573
g73
(dp2574
sg82
g2061
sg75
(lp2575
g68
(g89
g70
NtRp2576
(dp2577
g73
(dp2578
g93
g94
ssg82
g2572
sg75
(lp2579
S'wsgi.run_once'
p2580
asbag68
(g89
g70
NtRp2581
(dp2582
g73
(dp2583
g100
g101
ssg82
g2572
sg75
(lp2584
S':'
asbag68
(g89
g70
NtRp2585
(dp2586
g73
(dp2587
sg82
g2572
sg75
(lp2588
g68
(g69
g70
NtRp2589
(dp2590
g73
(dp2591
g81
I3
ssg82
g2585
sg75
(lp2592
g111
asbasbasbag68
(g84
g70
NtRp2593
(dp2594
g73
(dp2595
sg82
g2061
sg75
(lp2596
g68
(g89
g70
NtRp2597
(dp2598
g73
(dp2599
g93
g94
ssg82
g2593
sg75
(lp2600
S'wsgi.url_scheme'
p2601
asbag68
(g89
g70
NtRp2602
(dp2603
g73
(dp2604
g100
g101
ssg82
g2593
sg75
(lp2605
S':'
asbag68
(g89
g70
NtRp2606
(dp2607
g73
(dp2608
sg82
g2593
sg75
(lp2609
g68
(g69
g70
NtRp2610
(dp2611
g73
(dp2612
g81
I3
ssg82
g2606
sg75
(lp2613
g1354
asbasbasbag68
(g84
g70
NtRp2614
(dp2615
g73
(dp2616
sg82
g2061
sg75
(lp2617
g68
(g89
g70
NtRp2618
(dp2619
g73
(dp2620
g93
g94
ssg82
g2614
sg75
(lp2621
S'wsgi.version'
p2622
asbag68
(g89
g70
NtRp2623
(dp2624
g73
(dp2625
g100
g101
ssg82
g2614
sg75
(lp2626
S':'
asbag68
(g89
g70
NtRp2627
(dp2628
g73
(dp2629
sg82
g2614
sg75
(lp2630
g68
(g69
g70
NtRp2631
(dp2632
g73
(dp2633
g81
I3
ssg82
g2627
sg75
(lp2634
S'1'
asbasbasbasbasbasbasbasbasbasbasbasbasbsS'frames'
p2635
(lp2636
(dp2637
S'file'
p2638
S'/Users/schultzc/Documents/[Buffer]Overflow/github/fried/src/gluon/restricted.py'
p2639
sS'dump'
p2640
(dp2641
S'code'
p2642
S"'# -*- coding: utf-8 -*-\\n### required - do no del... dict()\\n\\n\\nresponse._vars=response._caller(index)\\n'"
p2643
sS'layer'
p2644
S"'/Users/schultzc/Documents/[Buffer]Overflow/githu...ied/src/applications/fried/controllers/default.py'"
p2645
sS'global compile2'
p2646
S'<function compile2>'
p2647
sS'ccode'
p2648
S'undefined'
p2649
ssS'lnum'
p2650
I193
sS'lines'
p2651
(dp2652
I192
S'        else:'
p2653
sI193
S'            ccode = compile2(code,layer)'
p2654
sI194
S'        exec ccode in environment'
p2655
sI195
S'    except HTTP:'
p2656
sI196
S'        raise'
p2657
sI197
S'    except Exception, error:'
p2658
sI188
S"    environment['__file__'] = layer"
p2659
sI189
S'    try:'
p2660
sI190
S'        if type(code) == types.CodeType:'
p2661
sI191
S'            ccode = code'
p2662
ssS'call'
p2663
S"(code='# -*- coding: utf-8 -*-\\n### required - do no del... dict()\\n\\n\\nresponse._vars=response._caller(index)\\n', environment={'A': <class 'gluon.html.A'>, 'Auth': <class 'gluon.tools.Auth'>, 'B': <class 'gluon.html.B'>, 'BEAUTIFY': <class 'gluon.html.BEAUTIFY'>, 'BODY': <class 'gluon.html.BODY'>, 'BR': <class 'gluon.html.BR'>, 'BUTTON': <class 'gluon.html.BUTTON'>, 'CAT': <class 'gluon.html.CAT'>, 'CENTER': <class 'gluon.html.CENTER'>, 'CLEANUP': <class 'gluon.validators.CLEANUP'>, ...}, layer='/Users/schultzc/Documents/[Buffer]Overflow/githu...ied/src/applications/fried/controllers/default.py')"
p2664
sS'func'
p2665
S'restricted'
p2666
sa(dp2667
g2638
S'/Users/schultzc/Documents/[Buffer]Overflow/github/fried/src/gluon/restricted.py'
p2668
sg2640
(dp2669
S'builtincompile'
p2670
S'<built-in function compile>'
p2671
sS'code'
p2672
S"'# -*- coding: utf-8 -*-\\n### required - do no del... dict()\\n\\n\\nresponse._vars=response._caller(index)\\n'"
p2673
sS'code.rstrip'
p2674
S'<built-in method rstrip of str object>'
p2675
sS').replace'
p2676
g2649
sS'layer'
p2677
S"'/Users/schultzc/Documents/[Buffer]Overflow/githu...ied/src/applications/fried/controllers/default.py'"
p2678
ssg2650
I179
sg2651
(dp2679
I174
S''
sI175
S'def compile2(code,layer):'
p2680
sI176
S'    """'
p2681
sI177
S"    The +'\\n' is necessary else compile fails when code ends in a comment."
p2682
sI178
S'    """'
p2683
sI179
S"    return compile(code.rstrip().replace('\\r\\n','\\n')+'\\n', layer, 'exec')"
p2684
sI180
S''
sI181
S"def restricted(code, environment=None, layer='Unknown'):"
p2685
sI182
S'    """'
p2686
sI183
S'    runs code in environment and returns the output. if an exception occurs'
p2687
ssg2663
S"(code='# -*- coding: utf-8 -*-\\n### required - do no del... dict()\\n\\n\\nresponse._vars=response._caller(index)\\n', layer='/Users/schultzc/Documents/[Buffer]Overflow/githu...ied/src/applications/fried/controllers/default.py')"
p2688
sg2665
S'compile2'
p2689
sasS'pyver'
p2690
S'Python 2.7.1: /Library/Frameworks/Python.framework/Versions/2.7/Resources/Python.app/Contents/MacOS/Python'
p2691
sS'session'
p2692
g68
(g69
g70
NtRp2693
(dp2694
g73
(dp2695
sg75
(lp2696
g68
(g77
g70
NtRp2697
(dp2698
g73
(dp2699
g81
I5
ssg82
Nsg75
(lp2700
sbasbsS'etype'
p2701
S"<type 'exceptions.SyntaxError'>"
p2702
sS'date'
p2703
S'Tue Nov 15 22:12:52 2011'
p2704
sS'response'
p2705
g68
(g69
g70
NtRp2706
(dp2707
g73
(dp2708
sg75
(lp2709
g68
(g77
g70
NtRp2710
(dp2711
g73
(dp2712
g81
I5
ssg82
Nsg75
(lp2713
g68
(g84
g70
NtRp2714
(dp2715
g73
(dp2716
sg82
g2710
sg75
(lp2717
g68
(g89
g70
NtRp2718
(dp2719
g73
(dp2720
g93
g94
ssg82
g2714
sg75
(lp2721
g179
asbag68
(g89
g70
NtRp2722
(dp2723
g73
(dp2724
g100
g101
ssg82
g2714
sg75
(lp2725
S':'
asbag68
(g89
g70
NtRp2726
(dp2727
g73
(dp2728
sg82
g2714
sg75
(lp2729
g68
(g69
g70
NtRp2730
(dp2731
g73
(dp2732
g81
I5
ssg82
g2726
sg75
(lp2733
S'<cStringIO.StringO object at 0x1080d1ed8>'
p2734
asbasbasbag68
(g84
g70
NtRp2735
(dp2736
g73
(dp2737
sg82
g2710
sg75
(lp2738
g68
(g89
g70
NtRp2739
(dp2740
g73
(dp2741
g93
g94
ssg82
g2735
sg75
(lp2742
g245
asbag68
(g89
g70
NtRp2743
(dp2744
g73
(dp2745
g100
g101
ssg82
g2735
sg75
(lp2746
S':'
asbag68
(g89
g70
NtRp2747
(dp2748
g73
(dp2749
sg82
g2735
sg75
(lp2750
g68
(g69
g70
NtRp2751
(dp2752
g73
(dp2753
g81
I5
ssg82
g2747
sg75
(lp2754
g68
(g77
g70
NtRp2755
(dp2756
g73
(dp2757
g81
I4
ssg82
Nsg75
(lp2758
g68
(g84
g70
NtRp2759
(dp2760
g73
(dp2761
sg82
g2755
sg75
(lp2762
g68
(g89
g70
NtRp2763
(dp2764
g73
(dp2765
g93
g94
ssg82
g2759
sg75
(lp2766
S'session_id_fried'
p2767
asbag68
(g89
g70
NtRp2768
(dp2769
g73
(dp2770
g100
g101
ssg82
g2759
sg75
(lp2771
S':'
asbag68
(g89
g70
NtRp2772
(dp2773
g73
(dp2774
sg82
g2759
sg75
(lp2775
g68
(g69
g70
NtRp2776
(dp2777
g73
(dp2778
g81
I4
ssg82
g2772
sg75
(lp2779
g68
(g77
g70
NtRp2780
(dp2781
g73
(dp2782
g81
I3
ssg82
Nsg75
(lp2783
g68
(g84
g70
NtRp2784
(dp2785
g73
(dp2786
sg82
g2780
sg75
(lp2787
g68
(g89
g70
NtRp2788
(dp2789
g73
(dp2790
g93
g94
ssg82
g2784
sg75
(lp2791
g295
asbag68
(g89
g70
NtRp2792
(dp2793
g73
(dp2794
g100
g101
ssg82
g2784
sg75
(lp2795
S':'
asbag68
(g89
g70
NtRp2796
(dp2797
g73
(dp2798
sg82
g2784
sg75
(lp2799
g68
(g69
g70
NtRp2800
(dp2801
g73
(dp2802
g81
I3
ssg82
g2796
sg75
(lp2803
S''
asbasbasbag68
(g84
g70
NtRp2804
(dp2805
g73
(dp2806
sg82
g2780
sg75
(lp2807
g68
(g89
g70
NtRp2808
(dp2809
g73
(dp2810
g93
g94
ssg82
g2804
sg75
(lp2811
g316
asbag68
(g89
g70
NtRp2812
(dp2813
g73
(dp2814
g100
g101
ssg82
g2804
sg75
(lp2815
S':'
asbag68
(g89
g70
NtRp2816
(dp2817
g73
(dp2818
sg82
g2804
sg75
(lp2819
g68
(g69
g70
NtRp2820
(dp2821
g73
(dp2822
g81
I3
ssg82
g2816
sg75
(lp2823
S''
asbasbasbag68
(g84
g70
NtRp2824
(dp2825
g73
(dp2826
sg82
g2780
sg75
(lp2827
g68
(g89
g70
NtRp2828
(dp2829
g73
(dp2830
g93
g94
ssg82
g2824
sg75
(lp2831
g337
asbag68
(g89
g70
NtRp2832
(dp2833
g73
(dp2834
g100
g101
ssg82
g2824
sg75
(lp2835
S':'
asbag68
(g89
g70
NtRp2836
(dp2837
g73
(dp2838
sg82
g2824
sg75
(lp2839
g68
(g69
g70
NtRp2840
(dp2841
g73
(dp2842
g81
I3
ssg82
g2836
sg75
(lp2843
S''
asbasbasbag68
(g84
g70
NtRp2844
(dp2845
g73
(dp2846
sg82
g2780
sg75
(lp2847
g68
(g89
g70
NtRp2848
(dp2849
g73
(dp2850
g93
g94
ssg82
g2844
sg75
(lp2851
g358
asbag68
(g89
g70
NtRp2852
(dp2853
g73
(dp2854
g100
g101
ssg82
g2844
sg75
(lp2855
S':'
asbag68
(g89
g70
NtRp2856
(dp2857
g73
(dp2858
sg82
g2844
sg75
(lp2859
g68
(g69
g70
NtRp2860
(dp2861
g73
(dp2862
g81
I3
ssg82
g2856
sg75
(lp2863
S''
asbasbasbag68
(g84
g70
NtRp2864
(dp2865
g73
(dp2866
sg82
g2780
sg75
(lp2867
g68
(g89
g70
NtRp2868
(dp2869
g73
(dp2870
g93
g94
ssg82
g2864
sg75
(lp2871
g379
asbag68
(g89
g70
NtRp2872
(dp2873
g73
(dp2874
g100
g101
ssg82
g2864
sg75
(lp2875
S':'
asbag68
(g89
g70
NtRp2876
(dp2877
g73
(dp2878
sg82
g2864
sg75
(lp2879
g68
(g69
g70
NtRp2880
(dp2881
g73
(dp2882
g81
I3
ssg82
g2876
sg75
(lp2883
S''
asbasbasbag68
(g84
g70
NtRp2884
(dp2885
g73
(dp2886
sg82
g2780
sg75
(lp2887
g68
(g89
g70
NtRp2888
(dp2889
g73
(dp2890
g93
g94
ssg82
g2884
sg75
(lp2891
g400
asbag68
(g89
g70
NtRp2892
(dp2893
g73
(dp2894
g100
g101
ssg82
g2884
sg75
(lp2895
S':'
asbag68
(g89
g70
NtRp2896
(dp2897
g73
(dp2898
sg82
g2884
sg75
(lp2899
g68
(g69
g70
NtRp2900
(dp2901
g73
(dp2902
g81
I3
ssg82
g2896
sg75
(lp2903
S'/'
asbasbasbag68
(g84
g70
NtRp2904
(dp2905
g73
(dp2906
sg82
g2780
sg75
(lp2907
g68
(g89
g70
NtRp2908
(dp2909
g73
(dp2910
g93
g94
ssg82
g2904
sg75
(lp2911
g421
asbag68
(g89
g70
NtRp2912
(dp2913
g73
(dp2914
g100
g101
ssg82
g2904
sg75
(lp2915
S':'
asbag68
(g89
g70
NtRp2916
(dp2917
g73
(dp2918
sg82
g2904
sg75
(lp2919
g68
(g69
g70
NtRp2920
(dp2921
g73
(dp2922
g81
I3
ssg82
g2916
sg75
(lp2923
S''
asbasbasbag68
(g84
g70
NtRp2924
(dp2925
g73
(dp2926
sg82
g2780
sg75
(lp2927
g68
(g89
g70
NtRp2928
(dp2929
g73
(dp2930
g93
g94
ssg82
g2924
sg75
(lp2931
g442
asbag68
(g89
g70
NtRp2932
(dp2933
g73
(dp2934
g100
g101
ssg82
g2924
sg75
(lp2935
S':'
asbag68
(g89
g70
NtRp2936
(dp2937
g73
(dp2938
sg82
g2924
sg75
(lp2939
g68
(g69
g70
NtRp2940
(dp2941
g73
(dp2942
g81
I3
ssg82
g2936
sg75
(lp2943
S''
asbasbasbasbasbasbasbasbasbasbasbag68
(g84
g70
NtRp2944
(dp2945
g73
(dp2946
sg82
g2710
sg75
(lp2947
g68
(g89
g70
NtRp2948
(dp2949
g73
(dp2950
g93
g94
ssg82
g2944
sg75
(lp2951
S'files'
p2952
asbag68
(g89
g70
NtRp2953
(dp2954
g73
(dp2955
g100
g101
ssg82
g2944
sg75
(lp2956
S':'
asbag68
(g89
g70
NtRp2957
(dp2958
g73
(dp2959
sg82
g2944
sg75
(lp2960
g68
(g69
g70
NtRp2961
(dp2962
g73
(dp2963
g81
I5
ssg82
g2957
sg75
(lp2964
g68
(g77
g70
NtRp2965
(dp2966
g73
(dp2967
g81
I4
ssg82
Nsg75
(lp2968
sbasbasbasbag68
(g84
g70
NtRp2969
(dp2970
g73
(dp2971
sg82
g2710
sg75
(lp2972
g68
(g89
g70
NtRp2973
(dp2974
g73
(dp2975
g93
g94
ssg82
g2969
sg75
(lp2976
S'flash'
p2977
asbag68
(g89
g70
NtRp2978
(dp2979
g73
(dp2980
g100
g101
ssg82
g2969
sg75
(lp2981
S':'
asbag68
(g89
g70
NtRp2982
(dp2983
g73
(dp2984
sg82
g2969
sg75
(lp2985
g68
(g69
g70
NtRp2986
(dp2987
g73
(dp2988
g81
I5
ssg82
g2982
sg75
(lp2989
S''
asbasbasbag68
(g84
g70
NtRp2990
(dp2991
g73
(dp2992
sg82
g2710
sg75
(lp2993
g68
(g89
g70
NtRp2994
(dp2995
g73
(dp2996
g93
g94
ssg82
g2990
sg75
(lp2997
S'generic_patterns'
p2998
asbag68
(g89
g70
NtRp2999
(dp3000
g73
(dp3001
g100
g101
ssg82
g2990
sg75
(lp3002
S':'
asbag68
(g89
g70
NtRp3003
(dp3004
g73
(dp3005
sg82
g2990
sg75
(lp3006
g68
(g69
g70
NtRp3007
(dp3008
g73
(dp3009
g81
I5
ssg82
g3003
sg75
(lp3010
g68
(g77
g70
NtRp3011
(dp3012
g73
(dp3013
g81
I4
ssg82
Nsg75
(lp3014
g68
(g84
g70
NtRp3015
(dp3016
g73
(dp3017
sg82
g3011
sg75
(lp3018
g68
(g89
g70
NtRp3019
(dp3020
g73
(dp3021
sg82
g3015
sg75
(lp3022
g68
(g69
g70
NtRp3023
(dp3024
g73
(dp3025
g81
I4
ssg82
g3019
sg75
(lp3026
S'*'
asbasbasbasbasbasbasbag68
(g84
g70
NtRp3027
(dp3028
g73
(dp3029
sg82
g2710
sg75
(lp3030
g68
(g89
g70
NtRp3031
(dp3032
g73
(dp3033
g93
g94
ssg82
g3027
sg75
(lp3034
S'headers'
p3035
asbag68
(g89
g70
NtRp3036
(dp3037
g73
(dp3038
g100
g101
ssg82
g3027
sg75
(lp3039
S':'
asbag68
(g89
g70
NtRp3040
(dp3041
g73
(dp3042
sg82
g3027
sg75
(lp3043
g68
(g69
g70
NtRp3044
(dp3045
g73
(dp3046
g81
I5
ssg82
g3040
sg75
(lp3047
g68
(g77
g70
NtRp3048
(dp3049
g73
(dp3050
g81
I4
ssg82
Nsg75
(lp3051
g68
(g84
g70
NtRp3052
(dp3053
g73
(dp3054
sg82
g3048
sg75
(lp3055
g68
(g89
g70
NtRp3056
(dp3057
g73
(dp3058
g93
g94
ssg82
g3052
sg75
(lp3059
S'Cache-Control'
p3060
asbag68
(g89
g70
NtRp3061
(dp3062
g73
(dp3063
g100
g101
ssg82
g3052
sg75
(lp3064
S':'
asbag68
(g89
g70
NtRp3065
(dp3066
g73
(dp3067
sg82
g3052
sg75
(lp3068
g68
(g69
g70
NtRp3069
(dp3070
g73
(dp3071
g81
I4
ssg82
g3065
sg75
(lp3072
S'no-store, no-cache, must-revalidate, post-check=0, pre-check=0'
p3073
asbasbasbag68
(g84
g70
NtRp3074
(dp3075
g73
(dp3076
sg82
g3048
sg75
(lp3077
g68
(g89
g70
NtRp3078
(dp3079
g73
(dp3080
g93
g94
ssg82
g3074
sg75
(lp3081
S'Content-Type'
p3082
asbag68
(g89
g70
NtRp3083
(dp3084
g73
(dp3085
g100
g101
ssg82
g3074
sg75
(lp3086
S':'
asbag68
(g89
g70
NtRp3087
(dp3088
g73
(dp3089
sg82
g3074
sg75
(lp3090
g68
(g69
g70
NtRp3091
(dp3092
g73
(dp3093
g81
I4
ssg82
g3087
sg75
(lp3094
S'text/html; charset=utf-8'
p3095
asbasbasbag68
(g84
g70
NtRp3096
(dp3097
g73
(dp3098
sg82
g3048
sg75
(lp3099
g68
(g89
g70
NtRp3100
(dp3101
g73
(dp3102
g93
g94
ssg82
g3096
sg75
(lp3103
S'Expires'
p3104
asbag68
(g89
g70
NtRp3105
(dp3106
g73
(dp3107
g100
g101
ssg82
g3096
sg75
(lp3108
S':'
asbag68
(g89
g70
NtRp3109
(dp3110
g73
(dp3111
sg82
g3096
sg75
(lp3112
g68
(g69
g70
NtRp3113
(dp3114
g73
(dp3115
g81
I4
ssg82
g3109
sg75
(lp3116
S'Wed, 16 Nov 2011 05:12:52 GMT'
p3117
asbasbasbag68
(g84
g70
NtRp3118
(dp3119
g73
(dp3120
sg82
g3048
sg75
(lp3121
g68
(g89
g70
NtRp3122
(dp3123
g73
(dp3124
g93
g94
ssg82
g3118
sg75
(lp3125
S'Pragma'
p3126
asbag68
(g89
g70
NtRp3127
(dp3128
g73
(dp3129
g100
g101
ssg82
g3118
sg75
(lp3130
S':'
asbag68
(g89
g70
NtRp3131
(dp3132
g73
(dp3133
sg82
g3118
sg75
(lp3134
g68
(g69
g70
NtRp3135
(dp3136
g73
(dp3137
g81
I4
ssg82
g3131
sg75
(lp3138
S'no-cache'
p3139
asbasbasbag68
(g84
g70
NtRp3140
(dp3141
g73
(dp3142
sg82
g3048
sg75
(lp3143
g68
(g89
g70
NtRp3144
(dp3145
g73
(dp3146
g93
g94
ssg82
g3140
sg75
(lp3147
S'X-Powered-By'
p3148
asbag68
(g89
g70
NtRp3149
(dp3150
g73
(dp3151
g100
g101
ssg82
g3140
sg75
(lp3152
S':'
asbag68
(g89
g70
NtRp3153
(dp3154
g73
(dp3155
sg82
g3140
sg75
(lp3156
g68
(g69
g70
NtRp3157
(dp3158
g73
(dp3159
g81
I4
ssg82
g3153
sg75
(lp3160
S'web2py'
p3161
asbasbasbasbasbasbasbag68
(g84
g70
NtRp3162
(dp3163
g73
(dp3164
sg82
g2710
sg75
(lp3165
g68
(g89
g70
NtRp3166
(dp3167
g73
(dp3168
g93
g94
ssg82
g3162
sg75
(lp3169
S'menu'
p3170
asbag68
(g89
g70
NtRp3171
(dp3172
g73
(dp3173
g100
g101
ssg82
g3162
sg75
(lp3174
S':'
asbag68
(g89
g70
NtRp3175
(dp3176
g73
(dp3177
sg82
g3162
sg75
(lp3178
g68
(g69
g70
NtRp3179
(dp3180
g73
(dp3181
g81
I5
ssg82
g3175
sg75
(lp3182
g68
(g77
g70
NtRp3183
(dp3184
g73
(dp3185
g81
I4
ssg82
Nsg75
(lp3186
g68
(g84
g70
NtRp3187
(dp3188
g73
(dp3189
sg82
g3183
sg75
(lp3190
g68
(g89
g70
NtRp3191
(dp3192
g73
(dp3193
sg82
g3187
sg75
(lp3194
g68
(g69
g70
NtRp3195
(dp3196
g73
(dp3197
g81
I4
ssg82
g3191
sg75
(lp3198
g68
(g77
g70
NtRp3199
(dp3200
g73
(dp3201
g81
I3
ssg82
Nsg75
(lp3202
g68
(g84
g70
NtRp3203
(dp3204
g73
(dp3205
sg82
g3199
sg75
(lp3206
g68
(g89
g70
NtRp3207
(dp3208
g73
(dp3209
sg82
g3203
sg75
(lp3210
g68
(g69
g70
NtRp3211
(dp3212
g73
(dp3213
g81
I3
ssg82
g3207
sg75
(lp3214
cgluon.languages
lazyT_unpickle
p3215
(S't\x05\x00\x00\x00Index'
tRp3216
asbasbasbag68
(g84
g70
NtRp3217
(dp3218
g73
(dp3219
sg82
g3199
sg75
(lp3220
g68
(g89
g70
NtRp3221
(dp3222
g73
(dp3223
sg82
g3217
sg75
(lp3224
g68
(g69
g70
NtRp3225
(dp3226
g73
(dp3227
g81
I3
ssg82
g3221
sg75
(lp3228
g1311
asbasbasbag68
(g84
g70
NtRp3229
(dp3230
g73
(dp3231
sg82
g3199
sg75
(lp3232
g68
(g89
g70
NtRp3233
(dp3234
g73
(dp3235
sg82
g3229
sg75
(lp3236
g68
(g69
g70
NtRp3237
(dp3238
g73
(dp3239
g81
I3
ssg82
g3233
sg75
(lp3240
S'/fried/default/index'
p3241
asbasbasbag68
(g84
g70
NtRp3242
(dp3243
g73
(dp3244
sg82
g3199
sg75
(lp3245
g68
(g89
g70
NtRp3246
(dp3247
g73
(dp3248
sg82
g3242
sg75
(lp3249
g68
(g69
g70
NtRp3250
(dp3251
g73
(dp3252
g81
I3
ssg82
g3246
sg75
(lp3253
g68
(g77
g70
NtRp3254
(dp3255
g73
(dp3256
g81
I2
ssg82
Nsg75
(lp3257
sbasbasbasbasbasbasbasbasbasbasbasbag68
(g84
g70
NtRp3258
(dp3259
g73
(dp3260
sg82
g2710
sg75
(lp3261
g68
(g89
g70
NtRp3262
(dp3263
g73
(dp3264
g93
g94
ssg82
g3258
sg75
(lp3265
S'meta'
p3266
asbag68
(g89
g70
NtRp3267
(dp3268
g73
(dp3269
g100
g101
ssg82
g3258
sg75
(lp3270
S':'
asbag68
(g89
g70
NtRp3271
(dp3272
g73
(dp3273
sg82
g3258
sg75
(lp3274
g68
(g69
g70
NtRp3275
(dp3276
g73
(dp3277
g81
I5
ssg82
g3271
sg75
(lp3278
g68
(g77
g70
NtRp3279
(dp3280
g73
(dp3281
g81
I4
ssg82
Nsg75
(lp3282
g68
(g84
g70
NtRp3283
(dp3284
g73
(dp3285
sg82
g3279
sg75
(lp3286
g68
(g89
g70
NtRp3287
(dp3288
g73
(dp3289
g93
g94
ssg82
g3283
sg75
(lp3290
S'author'
p3291
asbag68
(g89
g70
NtRp3292
(dp3293
g73
(dp3294
g100
g101
ssg82
g3283
sg75
(lp3295
S':'
asbag68
(g89
g70
NtRp3296
(dp3297
g73
(dp3298
sg82
g3283
sg75
(lp3299
g68
(g69
g70
NtRp3300
(dp3301
g73
(dp3302
g81
I4
ssg82
g3296
sg75
(lp3303
S'f47h3r <chaschul@uat.edu>'
p3304
asbasbasbag68
(g84
g70
NtRp3305
(dp3306
g73
(dp3307
sg82
g3279
sg75
(lp3308
g68
(g89
g70
NtRp3309
(dp3310
g73
(dp3311
g93
g94
ssg82
g3305
sg75
(lp3312
S'description'
p3313
asbag68
(g89
g70
NtRp3314
(dp3315
g73
(dp3316
g100
g101
ssg82
g3305
sg75
(lp3317
S':'
asbag68
(g89
g70
NtRp3318
(dp3319
g73
(dp3320
sg82
g3305
sg75
(lp3321
g68
(g69
g70
NtRp3322
(dp3323
g73
(dp3324
g81
I4
ssg82
g3318
sg75
(lp3325
S''
asbasbasbag68
(g84
g70
NtRp3326
(dp3327
g73
(dp3328
sg82
g3279
sg75
(lp3329
g68
(g89
g70
NtRp3330
(dp3331
g73
(dp3332
g93
g94
ssg82
g3326
sg75
(lp3333
S'keywords'
p3334
asbag68
(g89
g70
NtRp3335
(dp3336
g73
(dp3337
g100
g101
ssg82
g3326
sg75
(lp3338
S':'
asbag68
(g89
g70
NtRp3339
(dp3340
g73
(dp3341
sg82
g3326
sg75
(lp3342
g68
(g69
g70
NtRp3343
(dp3344
g73
(dp3345
g81
I4
ssg82
g3339
sg75
(lp3346
S''
asbasbasbasbasbasbasbag68
(g84
g70
NtRp3347
(dp3348
g73
(dp3349
sg82
g2710
sg75
(lp3350
g68
(g89
g70
NtRp3351
(dp3352
g73
(dp3353
g93
g94
ssg82
g3347
sg75
(lp3354
S'postprocessing'
p3355
asbag68
(g89
g70
NtRp3356
(dp3357
g73
(dp3358
g100
g101
ssg82
g3347
sg75
(lp3359
S':'
asbag68
(g89
g70
NtRp3360
(dp3361
g73
(dp3362
sg82
g3347
sg75
(lp3363
g68
(g69
g70
NtRp3364
(dp3365
g73
(dp3366
g81
I5
ssg82
g3360
sg75
(lp3367
g68
(g77
g70
NtRp3368
(dp3369
g73
(dp3370
g81
I4
ssg82
Nsg75
(lp3371
sbasbasbasbag68
(g84
g70
NtRp3372
(dp3373
g73
(dp3374
sg82
g2710
sg75
(lp3375
g68
(g89
g70
NtRp3376
(dp3377
g73
(dp3378
g93
g94
ssg82
g3372
sg75
(lp3379
S'session_file'
p3380
asbag68
(g89
g70
NtRp3381
(dp3382
g73
(dp3383
g100
g101
ssg82
g3372
sg75
(lp3384
S':'
asbag68
(g89
g70
NtRp3385
(dp3386
g73
(dp3387
sg82
g3372
sg75
(lp3388
g68
(g69
g70
NtRp3389
(dp3390
g73
(dp3391
g81
I5
ssg82
g3385
sg75
(lp3392
S"<open file '/Users/schultzc/Documents/[Buffer]Overflow/github/fried/src/applications/fried/sessions/127.0.0.1-fe56a172-a2db-4eda-9c6e-9ca46f2f1310', mode 'rb+' at 0x1080e7c90>"
p3393
asbasbasbag68
(g84
g70
NtRp3394
(dp3395
g73
(dp3396
sg82
g2710
sg75
(lp3397
g68
(g89
g70
NtRp3398
(dp3399
g73
(dp3400
g93
g94
ssg82
g3394
sg75
(lp3401
S'session_filename'
p3402
asbag68
(g89
g70
NtRp3403
(dp3404
g73
(dp3405
g100
g101
ssg82
g3394
sg75
(lp3406
S':'
asbag68
(g89
g70
NtRp3407
(dp3408
g73
(dp3409
sg82
g3394
sg75
(lp3410
g68
(g69
g70
NtRp3411
(dp3412
g73
(dp3413
g81
I5
ssg82
g3407
sg75
(lp3414
S'/Users/schultzc/Documents/[Buffer]Overflow/github/fried/src/applications/fried/sessions/127.0.0.1-fe56a172-a2db-4eda-9c6e-9ca46f2f1310'
p3415
asbasbasbag68
(g84
g70
NtRp3416
(dp3417
g73
(dp3418
sg82
g2710
sg75
(lp3419
g68
(g89
g70
NtRp3420
(dp3421
g73
(dp3422
g93
g94
ssg82
g3416
sg75
(lp3423
S'session_id'
p3424
asbag68
(g89
g70
NtRp3425
(dp3426
g73
(dp3427
g100
g101
ssg82
g3416
sg75
(lp3428
S':'
asbag68
(g89
g70
NtRp3429
(dp3430
g73
(dp3431
sg82
g3416
sg75
(lp3432
g68
(g69
g70
NtRp3433
(dp3434
g73
(dp3435
g81
I5
ssg82
g3429
sg75
(lp3436
S'127.0.0.1-fe56a172-a2db-4eda-9c6e-9ca46f2f1310'
p3437
asbasbasbag68
(g84
g70
NtRp3438
(dp3439
g73
(dp3440
sg82
g2710
sg75
(lp3441
g68
(g89
g70
NtRp3442
(dp3443
g73
(dp3444
g93
g94
ssg82
g3438
sg75
(lp3445
S'session_id_name'
p3446
asbag68
(g89
g70
NtRp3447
(dp3448
g73
(dp3449
g100
g101
ssg82
g3438
sg75
(lp3450
S':'
asbag68
(g89
g70
NtRp3451
(dp3452
g73
(dp3453
sg82
g3438
sg75
(lp3454
g68
(g69
g70
NtRp3455
(dp3456
g73
(dp3457
g81
I5
ssg82
g3451
sg75
(lp3458
g2767
asbasbasbag68
(g84
g70
NtRp3459
(dp3460
g73
(dp3461
sg82
g2710
sg75
(lp3462
g68
(g89
g70
NtRp3463
(dp3464
g73
(dp3465
g93
g94
ssg82
g3459
sg75
(lp3466
S'session_locked'
p3467
asbag68
(g89
g70
NtRp3468
(dp3469
g73
(dp3470
g100
g101
ssg82
g3459
sg75
(lp3471
S':'
asbag68
(g89
g70
NtRp3472
(dp3473
g73
(dp3474
sg82
g3459
sg75
(lp3475
g68
(g69
g70
NtRp3476
(dp3477
g73
(dp3478
g81
I5
ssg82
g3472
sg75
(lp3479
g1311
asbasbasbag68
(g84
g70
NtRp3480
(dp3481
g73
(dp3482
sg82
g2710
sg75
(lp3483
g68
(g89
g70
NtRp3484
(dp3485
g73
(dp3486
g93
g94
ssg82
g3480
sg75
(lp3487
S'session_new'
p3488
asbag68
(g89
g70
NtRp3489
(dp3490
g73
(dp3491
g100
g101
ssg82
g3480
sg75
(lp3492
S':'
asbag68
(g89
g70
NtRp3493
(dp3494
g73
(dp3495
sg82
g3480
sg75
(lp3496
g68
(g69
g70
NtRp3497
(dp3498
g73
(dp3499
g81
I5
ssg82
g3493
sg75
(lp3500
g111
asbasbasbag68
(g84
g70
NtRp3501
(dp3502
g73
(dp3503
sg82
g2710
sg75
(lp3504
g68
(g89
g70
NtRp3505
(dp3506
g73
(dp3507
g93
g94
ssg82
g3501
sg75
(lp3508
S'status'
p3509
asbag68
(g89
g70
NtRp3510
(dp3511
g73
(dp3512
g100
g101
ssg82
g3501
sg75
(lp3513
S':'
asbag68
(g89
g70
NtRp3514
(dp3515
g73
(dp3516
sg82
g3501
sg75
(lp3517
g68
(g69
g70
NtRp3518
(dp3519
g73
(dp3520
g81
I5
ssg82
g3514
sg75
(lp3521
S'200'
p3522
asbasbasbag68
(g84
g70
NtRp3523
(dp3524
g73
(dp3525
sg82
g2710
sg75
(lp3526
g68
(g89
g70
NtRp3527
(dp3528
g73
(dp3529
g93
g94
ssg82
g3523
sg75
(lp3530
S'subtitle'
p3531
asbag68
(g89
g70
NtRp3532
(dp3533
g73
(dp3534
g100
g101
ssg82
g3523
sg75
(lp3535
S':'
asbag68
(g89
g70
NtRp3536
(dp3537
g73
(dp3538
sg82
g3523
sg75
(lp3539
g68
(g69
g70
NtRp3540
(dp3541
g73
(dp3542
g81
I5
ssg82
g3536
sg75
(lp3543
S'powered by yourm0m'
p3544
asbasbasbag68
(g84
g70
NtRp3545
(dp3546
g73
(dp3547
sg82
g2710
sg75
(lp3548
g68
(g89
g70
NtRp3549
(dp3550
g73
(dp3551
g93
g94
ssg82
g3545
sg75
(lp3552
S'title'
p3553
asbag68
(g89
g70
NtRp3554
(dp3555
g73
(dp3556
g100
g101
ssg82
g3545
sg75
(lp3557
S':'
asbag68
(g89
g70
NtRp3558
(dp3559
g73
(dp3560
sg82
g3545
sg75
(lp3561
g68
(g69
g70
NtRp3562
(dp3563
g73
(dp3564
g81
I5
ssg82
g3558
sg75
(lp3565
S'OccupyPronz'
p3566
asbasbasbag68
(g84
g70
NtRp3567
(dp3568
g73
(dp3569
sg82
g2710
sg75
(lp3570
g68
(g89
g70
NtRp3571
(dp3572
g73
(dp3573
g93
g94
ssg82
g3567
sg75
(lp3574
g1976
asbag68
(g89
g70
NtRp3575
(dp3576
g73
(dp3577
g100
g101
ssg82
g3567
sg75
(lp3578
S':'
asbag68
(g89
g70
NtRp3579
(dp3580
g73
(dp3581
sg82
g3567
sg75
(lp3582
g68
(g69
g70
NtRp3583
(dp3584
g73
(dp3585
g81
I5
ssg82
g3579
sg75
(lp3586
g1989
asbasbasbag68
(g84
g70
NtRp3587
(dp3588
g73
(dp3589
sg82
g2710
sg75
(lp3590
g68
(g89
g70
NtRp3591
(dp3592
g73
(dp3593
g93
g94
ssg82
g3587
sg75
(lp3594
S'view'
p3595
asbag68
(g89
g70
NtRp3596
(dp3597
g73
(dp3598
g100
g101
ssg82
g3587
sg75
(lp3599
S':'
asbag68
(g89
g70
NtRp3600
(dp3601
g73
(dp3602
sg82
g3587
sg75
(lp3603
g68
(g69
g70
NtRp3604
(dp3605
g73
(dp3606
g81
I5
ssg82
g3600
sg75
(lp3607
S'default/index.html'
p3608
asbasbasbasbasbsS'locals'
p3609
(dp3610
g3
S"'/Users/schultzc/Documents/[Buffer]Overflow/githu...ied/src/applications/fried/controllers/default.py'"
p3611
sg5
S"'# -*- coding: utf-8 -*-\\n### required - do no del... dict()\\n\\n\\nresponse._vars=response._caller(index)\\n'"
p3612
sssS'traceback'
p3613
S'Traceback (most recent call last):\n  File "/Users/schultzc/Documents/[Buffer]Overflow/github/fried/src/gluon/restricted.py", line 193, in restricted\n    ccode = compile2(code,layer)\n  File "/Users/schultzc/Documents/[Buffer]Overflow/github/fried/src/gluon/restricted.py", line 179, in compile2\n    return compile(code.rstrip().replace(\'\\r\\n\',\'\\n\')+\'\\n\', layer, \'exec\')\n  File "/Users/schultzc/Documents/[Buffer]Overflow/github/fried/src/applications/fried/controllers/default.py", line 10\n    comet_send(127.0.0.1, \'Someone has hit the site\')\n                     ^\nSyntaxError: invalid syntax\n'
p3614
s.