(dp1
S'output'
p2
S''
sS'layer'
p3
S'/Users/schultzc/Documents/[Buffer]Overflow/github/fried/src/applications/fried/controllers/default.py'
p4
sS'code'
p5
S"# -*- coding: utf-8 -*-\n### required - do no delete\nfrom gluon.contrib.comet_messaging import comet_send\n\ndef user(): return dict(form=auth())\ndef download(): return response.download(request,db)\ndef call(): return service()\n### end requires\ndef index():\n    comet_send('localhost:8888', 'Someone has hit the site')\n    return dict(form=auth())\n\ndef clientdz():\n    text = request.post_vars['text']\n    return dict(test=text)\n\ndef error():\n    return dict()\n\n\nresponse._vars=response._caller(index)\n"
p6
sS'snapshot'
p7
(dp8
S'exception'
p9
(dp10
S'__getslice__'
p11
S"<method-wrapper '__getslice__' of exceptions.IOError object>"
p12
sS'__str__'
p13
S"<method-wrapper '__str__' of exceptions.IOError object>"
p14
sS'__reduce__'
p15
S'<built-in method __reduce__ of exceptions.IOError object>'
p16
sS'__dict__'
p17
S'{}'
p18
sS'__sizeof__'
p19
S'<built-in method __sizeof__ of exceptions.IOError object>'
p20
sS'__init__'
p21
S"<method-wrapper '__init__' of exceptions.IOError object>"
p22
sS'__setattr__'
p23
S"<method-wrapper '__setattr__' of exceptions.IOError object>"
p24
sS'__reduce_ex__'
p25
S'<built-in method __reduce_ex__ of exceptions.IOError object>'
p26
sS'__new__'
p27
S'<built-in method __new__ of type object>'
p28
sS'errno'
p29
S"'url error'"
p30
sS'__format__'
p31
S'<built-in method __format__ of exceptions.IOError object>'
p32
sS'__class__'
p33
S"<type 'exceptions.IOError'>"
p34
sS'filename'
p35
S"'localhost'"
p36
sS'__doc__'
p37
S"'I/O operation failed.'"
p38
sS'__getitem__'
p39
S"<method-wrapper '__getitem__' of exceptions.IOError object>"
p40
sS'__setstate__'
p41
S'<built-in method __setstate__ of exceptions.IOError object>'
p42
sS'__getattribute__'
p43
S"<method-wrapper '__getattribute__' of exceptions.IOError object>"
p44
sS'args'
p45
S"('url error', 'unknown url type')"
p46
sS'__subclasshook__'
p47
S'<built-in method __subclasshook__ of type object>'
p48
sS'__unicode__'
p49
S'<built-in method __unicode__ of exceptions.IOError object>'
p50
sS'strerror'
p51
S"'unknown url type'"
p52
sS'__delattr__'
p53
S"<method-wrapper '__delattr__' of exceptions.IOError object>"
p54
sS'__repr__'
p55
S"<method-wrapper '__repr__' of exceptions.IOError object>"
p56
sS'__hash__'
p57
S"<method-wrapper '__hash__' of exceptions.IOError object>"
p58
ssS'evalue'
p59
S"[Errno url error] unknown url type: 'localhost'"
p60
sS'request'
p61
ccopy_reg
_reconstructor
p62
(cgluon.html
BEAUTIFY
p63
c__builtin__
object
p64
NtRp65
(dp66
S'attributes'
p67
(dp68
sS'components'
p69
(lp70
g62
(cgluon.html
TABLE
p71
g64
NtRp72
(dp73
g67
(dp74
S'level'
p75
I5
ssS'parent'
p76
Nsg69
(lp77
g62
(cgluon.html
TR
p78
g64
NtRp79
(dp80
g67
(dp81
sg76
g72
sg69
(lp82
g62
(cgluon.html
TD
p83
g64
NtRp84
(dp85
g67
(dp86
S'_style'
p87
S'font-weight:bold;'
p88
ssg76
g79
sg69
(lp89
S'ajax'
p90
asbag62
(g83
g64
NtRp91
(dp92
g67
(dp93
S'_valign'
p94
S'top'
p95
ssg76
g79
sg69
(lp96
S':'
asbag62
(g83
g64
NtRp97
(dp98
g67
(dp99
sg76
g79
sg69
(lp100
g62
(g63
g64
NtRp101
(dp102
g67
(dp103
g75
I5
ssg76
g97
sg69
(lp104
S'False'
p105
asbasbasbag62
(g78
g64
NtRp106
(dp107
g67
(dp108
sg76
g72
sg69
(lp109
g62
(g83
g64
NtRp110
(dp111
g67
(dp112
g87
g88
ssg76
g106
sg69
(lp113
S'application'
p114
asbag62
(g83
g64
NtRp115
(dp116
g67
(dp117
g94
g95
ssg76
g106
sg69
(lp118
S':'
asbag62
(g83
g64
NtRp119
(dp120
g67
(dp121
sg76
g106
sg69
(lp122
g62
(g63
g64
NtRp123
(dp124
g67
(dp125
g75
I5
ssg76
g119
sg69
(lp126
S'fried'
p127
asbasbasbag62
(g78
g64
NtRp128
(dp129
g67
(dp130
sg76
g72
sg69
(lp131
g62
(g83
g64
NtRp132
(dp133
g67
(dp134
g87
g88
ssg76
g128
sg69
(lp135
g45
asbag62
(g83
g64
NtRp136
(dp137
g67
(dp138
g94
g95
ssg76
g128
sg69
(lp139
S':'
asbag62
(g83
g64
NtRp140
(dp141
g67
(dp142
sg76
g128
sg69
(lp143
g62
(g63
g64
NtRp144
(dp145
g67
(dp146
g75
I5
ssg76
g140
sg69
(lp147
g62
(g71
g64
NtRp148
(dp149
g67
(dp150
g75
I4
ssg76
Nsg69
(lp151
sbasbasbasbag62
(g78
g64
NtRp152
(dp153
g67
(dp154
sg76
g72
sg69
(lp155
g62
(g83
g64
NtRp156
(dp157
g67
(dp158
g87
g88
ssg76
g152
sg69
(lp159
S'body'
p160
asbag62
(g83
g64
NtRp161
(dp162
g67
(dp163
g94
g95
ssg76
g152
sg69
(lp164
S':'
asbag62
(g83
g64
NtRp165
(dp166
g67
(dp167
sg76
g152
sg69
(lp168
g62
(g63
g64
NtRp169
(dp170
g67
(dp171
g75
I5
ssg76
g165
sg69
(lp172
S'<cStringIO.StringO object at 0x108c89880>'
p173
asbasbasbag62
(g78
g64
NtRp174
(dp175
g67
(dp176
sg76
g72
sg69
(lp177
g62
(g83
g64
NtRp178
(dp179
g67
(dp180
g87
g88
ssg76
g174
sg69
(lp181
S'client'
p182
asbag62
(g83
g64
NtRp183
(dp184
g67
(dp185
g94
g95
ssg76
g174
sg69
(lp186
S':'
asbag62
(g83
g64
NtRp187
(dp188
g67
(dp189
sg76
g174
sg69
(lp190
g62
(g63
g64
NtRp191
(dp192
g67
(dp193
g75
I5
ssg76
g187
sg69
(lp194
S'127.0.0.1'
p195
asbasbasbag62
(g78
g64
NtRp196
(dp197
g67
(dp198
sg76
g72
sg69
(lp199
g62
(g83
g64
NtRp200
(dp201
g67
(dp202
g87
g88
ssg76
g196
sg69
(lp203
S'controller'
p204
asbag62
(g83
g64
NtRp205
(dp206
g67
(dp207
g94
g95
ssg76
g196
sg69
(lp208
S':'
asbag62
(g83
g64
NtRp209
(dp210
g67
(dp211
sg76
g196
sg69
(lp212
g62
(g63
g64
NtRp213
(dp214
g67
(dp215
g75
I5
ssg76
g209
sg69
(lp216
S'default'
p217
asbasbasbag62
(g78
g64
NtRp218
(dp219
g67
(dp220
sg76
g72
sg69
(lp221
g62
(g83
g64
NtRp222
(dp223
g67
(dp224
g87
g88
ssg76
g218
sg69
(lp225
S'cookies'
p226
asbag62
(g83
g64
NtRp227
(dp228
g67
(dp229
g94
g95
ssg76
g218
sg69
(lp230
S':'
asbag62
(g83
g64
NtRp231
(dp232
g67
(dp233
sg76
g218
sg69
(lp234
g62
(g63
g64
NtRp235
(dp236
g67
(dp237
g75
I5
ssg76
g231
sg69
(lp238
g62
(g71
g64
NtRp239
(dp240
g67
(dp241
g75
I4
ssg76
Nsg69
(lp242
g62
(g78
g64
NtRp243
(dp244
g67
(dp245
sg76
g239
sg69
(lp246
g62
(g83
g64
NtRp247
(dp248
g67
(dp249
g87
g88
ssg76
g243
sg69
(lp250
S'session_id_admin'
p251
asbag62
(g83
g64
NtRp252
(dp253
g67
(dp254
g94
g95
ssg76
g243
sg69
(lp255
S':'
asbag62
(g83
g64
NtRp256
(dp257
g67
(dp258
sg76
g243
sg69
(lp259
g62
(g63
g64
NtRp260
(dp261
g67
(dp262
g75
I4
ssg76
g256
sg69
(lp263
g62
(g71
g64
NtRp264
(dp265
g67
(dp266
g75
I3
ssg76
Nsg69
(lp267
g62
(g78
g64
NtRp268
(dp269
g67
(dp270
sg76
g264
sg69
(lp271
g62
(g83
g64
NtRp272
(dp273
g67
(dp274
g87
g88
ssg76
g268
sg69
(lp275
S'comment'
p276
asbag62
(g83
g64
NtRp277
(dp278
g67
(dp279
g94
g95
ssg76
g268
sg69
(lp280
S':'
asbag62
(g83
g64
NtRp281
(dp282
g67
(dp283
sg76
g268
sg69
(lp284
g62
(g63
g64
NtRp285
(dp286
g67
(dp287
g75
I3
ssg76
g281
sg69
(lp288
S''
asbasbasbag62
(g78
g64
NtRp289
(dp290
g67
(dp291
sg76
g264
sg69
(lp292
g62
(g83
g64
NtRp293
(dp294
g67
(dp295
g87
g88
ssg76
g289
sg69
(lp296
S'domain'
p297
asbag62
(g83
g64
NtRp298
(dp299
g67
(dp300
g94
g95
ssg76
g289
sg69
(lp301
S':'
asbag62
(g83
g64
NtRp302
(dp303
g67
(dp304
sg76
g289
sg69
(lp305
g62
(g63
g64
NtRp306
(dp307
g67
(dp308
g75
I3
ssg76
g302
sg69
(lp309
S''
asbasbasbag62
(g78
g64
NtRp310
(dp311
g67
(dp312
sg76
g264
sg69
(lp313
g62
(g83
g64
NtRp314
(dp315
g67
(dp316
g87
g88
ssg76
g310
sg69
(lp317
S'expires'
p318
asbag62
(g83
g64
NtRp319
(dp320
g67
(dp321
g94
g95
ssg76
g310
sg69
(lp322
S':'
asbag62
(g83
g64
NtRp323
(dp324
g67
(dp325
sg76
g310
sg69
(lp326
g62
(g63
g64
NtRp327
(dp328
g67
(dp329
g75
I3
ssg76
g323
sg69
(lp330
S''
asbasbasbag62
(g78
g64
NtRp331
(dp332
g67
(dp333
sg76
g264
sg69
(lp334
g62
(g83
g64
NtRp335
(dp336
g67
(dp337
g87
g88
ssg76
g331
sg69
(lp338
S'httponly'
p339
asbag62
(g83
g64
NtRp340
(dp341
g67
(dp342
g94
g95
ssg76
g331
sg69
(lp343
S':'
asbag62
(g83
g64
NtRp344
(dp345
g67
(dp346
sg76
g331
sg69
(lp347
g62
(g63
g64
NtRp348
(dp349
g67
(dp350
g75
I3
ssg76
g344
sg69
(lp351
S''
asbasbasbag62
(g78
g64
NtRp352
(dp353
g67
(dp354
sg76
g264
sg69
(lp355
g62
(g83
g64
NtRp356
(dp357
g67
(dp358
g87
g88
ssg76
g352
sg69
(lp359
S'max-age'
p360
asbag62
(g83
g64
NtRp361
(dp362
g67
(dp363
g94
g95
ssg76
g352
sg69
(lp364
S':'
asbag62
(g83
g64
NtRp365
(dp366
g67
(dp367
sg76
g352
sg69
(lp368
g62
(g63
g64
NtRp369
(dp370
g67
(dp371
g75
I3
ssg76
g365
sg69
(lp372
S''
asbasbasbag62
(g78
g64
NtRp373
(dp374
g67
(dp375
sg76
g264
sg69
(lp376
g62
(g83
g64
NtRp377
(dp378
g67
(dp379
g87
g88
ssg76
g373
sg69
(lp380
S'path'
p381
asbag62
(g83
g64
NtRp382
(dp383
g67
(dp384
g94
g95
ssg76
g373
sg69
(lp385
S':'
asbag62
(g83
g64
NtRp386
(dp387
g67
(dp388
sg76
g373
sg69
(lp389
g62
(g63
g64
NtRp390
(dp391
g67
(dp392
g75
I3
ssg76
g386
sg69
(lp393
S''
asbasbasbag62
(g78
g64
NtRp394
(dp395
g67
(dp396
sg76
g264
sg69
(lp397
g62
(g83
g64
NtRp398
(dp399
g67
(dp400
g87
g88
ssg76
g394
sg69
(lp401
S'secure'
p402
asbag62
(g83
g64
NtRp403
(dp404
g67
(dp405
g94
g95
ssg76
g394
sg69
(lp406
S':'
asbag62
(g83
g64
NtRp407
(dp408
g67
(dp409
sg76
g394
sg69
(lp410
g62
(g63
g64
NtRp411
(dp412
g67
(dp413
g75
I3
ssg76
g407
sg69
(lp414
S''
asbasbasbag62
(g78
g64
NtRp415
(dp416
g67
(dp417
sg76
g264
sg69
(lp418
g62
(g83
g64
NtRp419
(dp420
g67
(dp421
g87
g88
ssg76
g415
sg69
(lp422
S'version'
p423
asbag62
(g83
g64
NtRp424
(dp425
g67
(dp426
g94
g95
ssg76
g415
sg69
(lp427
S':'
asbag62
(g83
g64
NtRp428
(dp429
g67
(dp430
sg76
g415
sg69
(lp431
g62
(g63
g64
NtRp432
(dp433
g67
(dp434
g75
I3
ssg76
g428
sg69
(lp435
S''
asbasbasbasbasbasbasbag62
(g78
g64
NtRp436
(dp437
g67
(dp438
sg76
g239
sg69
(lp439
g62
(g83
g64
NtRp440
(dp441
g67
(dp442
g87
g88
ssg76
g436
sg69
(lp443
S'session_id_fried'
p444
asbag62
(g83
g64
NtRp445
(dp446
g67
(dp447
g94
g95
ssg76
g436
sg69
(lp448
S':'
asbag62
(g83
g64
NtRp449
(dp450
g67
(dp451
sg76
g436
sg69
(lp452
g62
(g63
g64
NtRp453
(dp454
g67
(dp455
g75
I4
ssg76
g449
sg69
(lp456
g62
(g71
g64
NtRp457
(dp458
g67
(dp459
g75
I3
ssg76
Nsg69
(lp460
g62
(g78
g64
NtRp461
(dp462
g67
(dp463
sg76
g457
sg69
(lp464
g62
(g83
g64
NtRp465
(dp466
g67
(dp467
g87
g88
ssg76
g461
sg69
(lp468
g276
asbag62
(g83
g64
NtRp469
(dp470
g67
(dp471
g94
g95
ssg76
g461
sg69
(lp472
S':'
asbag62
(g83
g64
NtRp473
(dp474
g67
(dp475
sg76
g461
sg69
(lp476
g62
(g63
g64
NtRp477
(dp478
g67
(dp479
g75
I3
ssg76
g473
sg69
(lp480
S''
asbasbasbag62
(g78
g64
NtRp481
(dp482
g67
(dp483
sg76
g457
sg69
(lp484
g62
(g83
g64
NtRp485
(dp486
g67
(dp487
g87
g88
ssg76
g481
sg69
(lp488
g297
asbag62
(g83
g64
NtRp489
(dp490
g67
(dp491
g94
g95
ssg76
g481
sg69
(lp492
S':'
asbag62
(g83
g64
NtRp493
(dp494
g67
(dp495
sg76
g481
sg69
(lp496
g62
(g63
g64
NtRp497
(dp498
g67
(dp499
g75
I3
ssg76
g493
sg69
(lp500
S''
asbasbasbag62
(g78
g64
NtRp501
(dp502
g67
(dp503
sg76
g457
sg69
(lp504
g62
(g83
g64
NtRp505
(dp506
g67
(dp507
g87
g88
ssg76
g501
sg69
(lp508
g318
asbag62
(g83
g64
NtRp509
(dp510
g67
(dp511
g94
g95
ssg76
g501
sg69
(lp512
S':'
asbag62
(g83
g64
NtRp513
(dp514
g67
(dp515
sg76
g501
sg69
(lp516
g62
(g63
g64
NtRp517
(dp518
g67
(dp519
g75
I3
ssg76
g513
sg69
(lp520
S''
asbasbasbag62
(g78
g64
NtRp521
(dp522
g67
(dp523
sg76
g457
sg69
(lp524
g62
(g83
g64
NtRp525
(dp526
g67
(dp527
g87
g88
ssg76
g521
sg69
(lp528
g339
asbag62
(g83
g64
NtRp529
(dp530
g67
(dp531
g94
g95
ssg76
g521
sg69
(lp532
S':'
asbag62
(g83
g64
NtRp533
(dp534
g67
(dp535
sg76
g521
sg69
(lp536
g62
(g63
g64
NtRp537
(dp538
g67
(dp539
g75
I3
ssg76
g533
sg69
(lp540
S''
asbasbasbag62
(g78
g64
NtRp541
(dp542
g67
(dp543
sg76
g457
sg69
(lp544
g62
(g83
g64
NtRp545
(dp546
g67
(dp547
g87
g88
ssg76
g541
sg69
(lp548
g360
asbag62
(g83
g64
NtRp549
(dp550
g67
(dp551
g94
g95
ssg76
g541
sg69
(lp552
S':'
asbag62
(g83
g64
NtRp553
(dp554
g67
(dp555
sg76
g541
sg69
(lp556
g62
(g63
g64
NtRp557
(dp558
g67
(dp559
g75
I3
ssg76
g553
sg69
(lp560
S''
asbasbasbag62
(g78
g64
NtRp561
(dp562
g67
(dp563
sg76
g457
sg69
(lp564
g62
(g83
g64
NtRp565
(dp566
g67
(dp567
g87
g88
ssg76
g561
sg69
(lp568
g381
asbag62
(g83
g64
NtRp569
(dp570
g67
(dp571
g94
g95
ssg76
g561
sg69
(lp572
S':'
asbag62
(g83
g64
NtRp573
(dp574
g67
(dp575
sg76
g561
sg69
(lp576
g62
(g63
g64
NtRp577
(dp578
g67
(dp579
g75
I3
ssg76
g573
sg69
(lp580
S''
asbasbasbag62
(g78
g64
NtRp581
(dp582
g67
(dp583
sg76
g457
sg69
(lp584
g62
(g83
g64
NtRp585
(dp586
g67
(dp587
g87
g88
ssg76
g581
sg69
(lp588
g402
asbag62
(g83
g64
NtRp589
(dp590
g67
(dp591
g94
g95
ssg76
g581
sg69
(lp592
S':'
asbag62
(g83
g64
NtRp593
(dp594
g67
(dp595
sg76
g581
sg69
(lp596
g62
(g63
g64
NtRp597
(dp598
g67
(dp599
g75
I3
ssg76
g593
sg69
(lp600
S''
asbasbasbag62
(g78
g64
NtRp601
(dp602
g67
(dp603
sg76
g457
sg69
(lp604
g62
(g83
g64
NtRp605
(dp606
g67
(dp607
g87
g88
ssg76
g601
sg69
(lp608
g423
asbag62
(g83
g64
NtRp609
(dp610
g67
(dp611
g94
g95
ssg76
g601
sg69
(lp612
S':'
asbag62
(g83
g64
NtRp613
(dp614
g67
(dp615
sg76
g601
sg69
(lp616
g62
(g63
g64
NtRp617
(dp618
g67
(dp619
g75
I3
ssg76
g613
sg69
(lp620
S''
asbasbasbasbasbasbasbasbasbasbasbag62
(g78
g64
NtRp621
(dp622
g67
(dp623
sg76
g72
sg69
(lp624
g62
(g83
g64
NtRp625
(dp626
g67
(dp627
g87
g88
ssg76
g621
sg69
(lp628
S'env'
p629
asbag62
(g83
g64
NtRp630
(dp631
g67
(dp632
g94
g95
ssg76
g621
sg69
(lp633
S':'
asbag62
(g83
g64
NtRp634
(dp635
g67
(dp636
sg76
g621
sg69
(lp637
g62
(g63
g64
NtRp638
(dp639
g67
(dp640
g75
I5
ssg76
g634
sg69
(lp641
g62
(g71
g64
NtRp642
(dp643
g67
(dp644
g75
I4
ssg76
Nsg69
(lp645
g62
(g78
g64
NtRp646
(dp647
g67
(dp648
sg76
g642
sg69
(lp649
g62
(g83
g64
NtRp650
(dp651
g67
(dp652
g87
g88
ssg76
g646
sg69
(lp653
S'app_folders'
p654
asbag62
(g83
g64
NtRp655
(dp656
g67
(dp657
g94
g95
ssg76
g646
sg69
(lp658
S':'
asbag62
(g83
g64
NtRp659
(dp660
g67
(dp661
sg76
g646
sg69
(lp662
g62
(g63
g64
NtRp663
(dp664
g67
(dp665
g75
I4
ssg76
g659
sg69
(lp666
S"set(['/Users/schultzc/Documents/[Buffer]Overflow/github/fried/src/applications/admin/', '/Users/schultzc/Documents/[Buffer]Overflow/github/fried/src/applications/welcome/', '/Users/schultzc/Documents/[Buffer]Overflow/github/fried/src/applications/fried/'])"
p667
asbasbasbag62
(g78
g64
NtRp668
(dp669
g67
(dp670
sg76
g642
sg69
(lp671
g62
(g83
g64
NtRp672
(dp673
g67
(dp674
g87
g88
ssg76
g668
sg69
(lp675
S'applications_parent'
p676
asbag62
(g83
g64
NtRp677
(dp678
g67
(dp679
g94
g95
ssg76
g668
sg69
(lp680
S':'
asbag62
(g83
g64
NtRp681
(dp682
g67
(dp683
sg76
g668
sg69
(lp684
g62
(g63
g64
NtRp685
(dp686
g67
(dp687
g75
I4
ssg76
g681
sg69
(lp688
S'/Users/schultzc/Documents/[Buffer]Overflow/github/fried/src'
p689
asbasbasbag62
(g78
g64
NtRp690
(dp691
g67
(dp692
sg76
g642
sg69
(lp693
g62
(g83
g64
NtRp694
(dp695
g67
(dp696
g87
g88
ssg76
g690
sg69
(lp697
S'cmd_args'
p698
asbag62
(g83
g64
NtRp699
(dp700
g67
(dp701
g94
g95
ssg76
g690
sg69
(lp702
S':'
asbag62
(g83
g64
NtRp703
(dp704
g67
(dp705
sg76
g690
sg69
(lp706
g62
(g63
g64
NtRp707
(dp708
g67
(dp709
g75
I4
ssg76
g703
sg69
(lp710
g62
(g71
g64
NtRp711
(dp712
g67
(dp713
g75
I3
ssg76
Nsg69
(lp714
sbasbasbasbag62
(g78
g64
NtRp715
(dp716
g67
(dp717
sg76
g642
sg69
(lp718
g62
(g83
g64
NtRp719
(dp720
g67
(dp721
g87
g88
ssg76
g715
sg69
(lp722
S'cmd_options'
p723
asbag62
(g83
g64
NtRp724
(dp725
g67
(dp726
g94
g95
ssg76
g715
sg69
(lp727
S':'
asbag62
(g83
g64
NtRp728
(dp729
g67
(dp730
sg76
g715
sg69
(lp731
g62
(g63
g64
NtRp732
(dp733
g67
(dp734
g75
I4
ssg76
g728
sg69
(lp735
S"<Values at 0x1018f3290: {'verbose': False, 'ip': '127.0.0.1', 'shutdown_timeout': 5, 'taskbar': False, 'nocron': False, 'pid_filename': 'httpserver.pid', 'maxthreads': None, 'softcron': False, 'server_name': 'Magnus-Specialis.local', 'bpython': False, 'nogui': False, 'port': 8000, 'extcron': False, 'debuglevel': 30, 'test': None, 'folder': '/Users/schultzc/Documents/[Buffer]Overflow/github/fried/src', 'config': '', 'import_models': False, 'winservice': '', 'shell': None, 'run': '', 'log_filename': 'httpserver.log', 'args': [''], 'ssl_ca_certificate': None, 'scheduler': None, 'profiler_filename': None, 'ssl_private_key': '', 'password': '<ask>', 'request_queue_size': 5, 'ssl_certificate': '', 'cronjob': False, 'plain': False, 'quiet': False, 'interfaces': None, 'minthreads': None, 'timeout': 10, 'numthreads': None, 'nobanner': False}>"
p736
asbasbasbag62
(g78
g64
NtRp737
(dp738
g67
(dp739
sg76
g642
sg69
(lp740
g62
(g83
g64
NtRp741
(dp742
g67
(dp743
g87
g88
ssg76
g737
sg69
(lp744
S'db_sessions'
p745
asbag62
(g83
g64
NtRp746
(dp747
g67
(dp748
g94
g95
ssg76
g737
sg69
(lp749
S':'
asbag62
(g83
g64
NtRp750
(dp751
g67
(dp752
sg76
g737
sg69
(lp753
g62
(g63
g64
NtRp754
(dp755
g67
(dp756
g75
I4
ssg76
g750
sg69
(lp757
S'set([])'
p758
asbasbasbag62
(g78
g64
NtRp759
(dp760
g67
(dp761
sg76
g642
sg69
(lp762
g62
(g83
g64
NtRp763
(dp764
g67
(dp765
g87
g88
ssg76
g759
sg69
(lp766
S'debugging'
p767
asbag62
(g83
g64
NtRp768
(dp769
g67
(dp770
g94
g95
ssg76
g759
sg69
(lp771
S':'
asbag62
(g83
g64
NtRp772
(dp773
g67
(dp774
sg76
g759
sg69
(lp775
g62
(g63
g64
NtRp776
(dp777
g67
(dp778
g75
I4
ssg76
g772
sg69
(lp779
g105
asbasbasbag62
(g78
g64
NtRp780
(dp781
g67
(dp782
sg76
g642
sg69
(lp783
g62
(g83
g64
NtRp784
(dp785
g67
(dp786
g87
g88
ssg76
g780
sg69
(lp787
S'gluon_parent'
p788
asbag62
(g83
g64
NtRp789
(dp790
g67
(dp791
g94
g95
ssg76
g780
sg69
(lp792
S':'
asbag62
(g83
g64
NtRp793
(dp794
g67
(dp795
sg76
g780
sg69
(lp796
g62
(g63
g64
NtRp797
(dp798
g67
(dp799
g75
I4
ssg76
g793
sg69
(lp800
S'/Users/schultzc/Documents/[Buffer]Overflow/github/fried/src'
p801
asbasbasbag62
(g78
g64
NtRp802
(dp803
g67
(dp804
sg76
g642
sg69
(lp805
g62
(g83
g64
NtRp806
(dp807
g67
(dp808
g87
g88
ssg76
g802
sg69
(lp809
S'http_accept'
p810
asbag62
(g83
g64
NtRp811
(dp812
g67
(dp813
g94
g95
ssg76
g802
sg69
(lp814
S':'
asbag62
(g83
g64
NtRp815
(dp816
g67
(dp817
sg76
g802
sg69
(lp818
g62
(g63
g64
NtRp819
(dp820
g67
(dp821
g75
I4
ssg76
g815
sg69
(lp822
S'text/html,application/xhtml+xml,application/xml;q=0.9,*/*;q=0.8'
p823
asbasbasbag62
(g78
g64
NtRp824
(dp825
g67
(dp826
sg76
g642
sg69
(lp827
g62
(g83
g64
NtRp828
(dp829
g67
(dp830
g87
g88
ssg76
g824
sg69
(lp831
S'http_accept_charset'
p832
asbag62
(g83
g64
NtRp833
(dp834
g67
(dp835
g94
g95
ssg76
g824
sg69
(lp836
S':'
asbag62
(g83
g64
NtRp837
(dp838
g67
(dp839
sg76
g824
sg69
(lp840
g62
(g63
g64
NtRp841
(dp842
g67
(dp843
g75
I4
ssg76
g837
sg69
(lp844
S'ISO-8859-1,utf-8;q=0.7,*;q=0.3'
p845
asbasbasbag62
(g78
g64
NtRp846
(dp847
g67
(dp848
sg76
g642
sg69
(lp849
g62
(g83
g64
NtRp850
(dp851
g67
(dp852
g87
g88
ssg76
g846
sg69
(lp853
S'http_accept_encoding'
p854
asbag62
(g83
g64
NtRp855
(dp856
g67
(dp857
g94
g95
ssg76
g846
sg69
(lp858
S':'
asbag62
(g83
g64
NtRp859
(dp860
g67
(dp861
sg76
g846
sg69
(lp862
g62
(g63
g64
NtRp863
(dp864
g67
(dp865
g75
I4
ssg76
g859
sg69
(lp866
S'gzip,deflate,sdch'
p867
asbasbasbag62
(g78
g64
NtRp868
(dp869
g67
(dp870
sg76
g642
sg69
(lp871
g62
(g83
g64
NtRp872
(dp873
g67
(dp874
g87
g88
ssg76
g868
sg69
(lp875
S'http_accept_language'
p876
asbag62
(g83
g64
NtRp877
(dp878
g67
(dp879
g94
g95
ssg76
g868
sg69
(lp880
S':'
asbag62
(g83
g64
NtRp881
(dp882
g67
(dp883
sg76
g868
sg69
(lp884
g62
(g63
g64
NtRp885
(dp886
g67
(dp887
g75
I4
ssg76
g881
sg69
(lp888
S'en-US,en;q=0.8'
p889
asbasbasbag62
(g78
g64
NtRp890
(dp891
g67
(dp892
sg76
g642
sg69
(lp893
g62
(g83
g64
NtRp894
(dp895
g67
(dp896
g87
g88
ssg76
g890
sg69
(lp897
S'http_cache_control'
p898
asbag62
(g83
g64
NtRp899
(dp900
g67
(dp901
g94
g95
ssg76
g890
sg69
(lp902
S':'
asbag62
(g83
g64
NtRp903
(dp904
g67
(dp905
sg76
g890
sg69
(lp906
g62
(g63
g64
NtRp907
(dp908
g67
(dp909
g75
I4
ssg76
g903
sg69
(lp910
S'max-age=0'
p911
asbasbasbag62
(g78
g64
NtRp912
(dp913
g67
(dp914
sg76
g642
sg69
(lp915
g62
(g83
g64
NtRp916
(dp917
g67
(dp918
g87
g88
ssg76
g912
sg69
(lp919
S'http_connection'
p920
asbag62
(g83
g64
NtRp921
(dp922
g67
(dp923
g94
g95
ssg76
g912
sg69
(lp924
S':'
asbag62
(g83
g64
NtRp925
(dp926
g67
(dp927
sg76
g912
sg69
(lp928
g62
(g63
g64
NtRp929
(dp930
g67
(dp931
g75
I4
ssg76
g925
sg69
(lp932
S'keep-alive'
p933
asbasbasbag62
(g78
g64
NtRp934
(dp935
g67
(dp936
sg76
g642
sg69
(lp937
g62
(g83
g64
NtRp938
(dp939
g67
(dp940
g87
g88
ssg76
g934
sg69
(lp941
S'http_cookie'
p942
asbag62
(g83
g64
NtRp943
(dp944
g67
(dp945
g94
g95
ssg76
g934
sg69
(lp946
S':'
asbag62
(g83
g64
NtRp947
(dp948
g67
(dp949
sg76
g934
sg69
(lp950
g62
(g63
g64
NtRp951
(dp952
g67
(dp953
g75
I4
ssg76
g947
sg69
(lp954
S'session_id_fried=127.0.0.1-fe56a172-a2db-4eda-9c6e-9ca46f2f1310; session_id_admin=127.0.0.1-d898edc1-5fe7-4be2-862d-4e4786cd70e1'
p955
asbasbasbag62
(g78
g64
NtRp956
(dp957
g67
(dp958
sg76
g642
sg69
(lp959
g62
(g83
g64
NtRp960
(dp961
g67
(dp962
g87
g88
ssg76
g956
sg69
(lp963
S'http_host'
p964
asbag62
(g83
g64
NtRp965
(dp966
g67
(dp967
g94
g95
ssg76
g956
sg69
(lp968
S':'
asbag62
(g83
g64
NtRp969
(dp970
g67
(dp971
sg76
g956
sg69
(lp972
g62
(g63
g64
NtRp973
(dp974
g67
(dp975
g75
I4
ssg76
g969
sg69
(lp976
S'localhost:8000'
p977
asbasbasbag62
(g78
g64
NtRp978
(dp979
g67
(dp980
sg76
g642
sg69
(lp981
g62
(g83
g64
NtRp982
(dp983
g67
(dp984
g87
g88
ssg76
g978
sg69
(lp985
S'http_user_agent'
p986
asbag62
(g83
g64
NtRp987
(dp988
g67
(dp989
g94
g95
ssg76
g978
sg69
(lp990
S':'
asbag62
(g83
g64
NtRp991
(dp992
g67
(dp993
sg76
g978
sg69
(lp994
g62
(g63
g64
NtRp995
(dp996
g67
(dp997
g75
I4
ssg76
g991
sg69
(lp998
S'Mozilla/5.0 (Macintosh; Intel Mac OS X 10_7_2) AppleWebKit/535.2 (KHTML, like Gecko) Chrome/15.0.874.106 Safari/535.2'
p999
asbasbasbag62
(g78
g64
NtRp1000
(dp1001
g67
(dp1002
sg76
g642
sg69
(lp1003
g62
(g83
g64
NtRp1004
(dp1005
g67
(dp1006
g87
g88
ssg76
g1000
sg69
(lp1007
S'is_jython'
p1008
asbag62
(g83
g64
NtRp1009
(dp1010
g67
(dp1011
g94
g95
ssg76
g1000
sg69
(lp1012
S':'
asbag62
(g83
g64
NtRp1013
(dp1014
g67
(dp1015
sg76
g1000
sg69
(lp1016
g62
(g63
g64
NtRp1017
(dp1018
g67
(dp1019
g75
I4
ssg76
g1013
sg69
(lp1020
g105
asbasbasbag62
(g78
g64
NtRp1021
(dp1022
g67
(dp1023
sg76
g642
sg69
(lp1024
g62
(g83
g64
NtRp1025
(dp1026
g67
(dp1027
g87
g88
ssg76
g1021
sg69
(lp1028
S'path_info'
p1029
asbag62
(g83
g64
NtRp1030
(dp1031
g67
(dp1032
g94
g95
ssg76
g1021
sg69
(lp1033
S':'
asbag62
(g83
g64
NtRp1034
(dp1035
g67
(dp1036
sg76
g1021
sg69
(lp1037
g62
(g63
g64
NtRp1038
(dp1039
g67
(dp1040
g75
I4
ssg76
g1034
sg69
(lp1041
S'/fried/default/index/'
p1042
asbasbasbag62
(g78
g64
NtRp1043
(dp1044
g67
(dp1045
sg76
g642
sg69
(lp1046
g62
(g83
g64
NtRp1047
(dp1048
g67
(dp1049
g87
g88
ssg76
g1043
sg69
(lp1050
S'query_string'
p1051
asbag62
(g83
g64
NtRp1052
(dp1053
g67
(dp1054
g94
g95
ssg76
g1043
sg69
(lp1055
S':'
asbag62
(g83
g64
NtRp1056
(dp1057
g67
(dp1058
sg76
g1043
sg69
(lp1059
g62
(g63
g64
NtRp1060
(dp1061
g67
(dp1062
g75
I4
ssg76
g1056
sg69
(lp1063
S''
asbasbasbag62
(g78
g64
NtRp1064
(dp1065
g67
(dp1066
sg76
g642
sg69
(lp1067
g62
(g83
g64
NtRp1068
(dp1069
g67
(dp1070
g87
g88
ssg76
g1064
sg69
(lp1071
S'remote_addr'
p1072
asbag62
(g83
g64
NtRp1073
(dp1074
g67
(dp1075
g94
g95
ssg76
g1064
sg69
(lp1076
S':'
asbag62
(g83
g64
NtRp1077
(dp1078
g67
(dp1079
sg76
g1064
sg69
(lp1080
g62
(g63
g64
NtRp1081
(dp1082
g67
(dp1083
g75
I4
ssg76
g1077
sg69
(lp1084
g195
asbasbasbag62
(g78
g64
NtRp1085
(dp1086
g67
(dp1087
sg76
g642
sg69
(lp1088
g62
(g83
g64
NtRp1089
(dp1090
g67
(dp1091
g87
g88
ssg76
g1085
sg69
(lp1092
S'remote_port'
p1093
asbag62
(g83
g64
NtRp1094
(dp1095
g67
(dp1096
g94
g95
ssg76
g1085
sg69
(lp1097
S':'
asbag62
(g83
g64
NtRp1098
(dp1099
g67
(dp1100
sg76
g1085
sg69
(lp1101
g62
(g63
g64
NtRp1102
(dp1103
g67
(dp1104
g75
I4
ssg76
g1098
sg69
(lp1105
S'65072'
p1106
asbasbasbag62
(g78
g64
NtRp1107
(dp1108
g67
(dp1109
sg76
g642
sg69
(lp1110
g62
(g83
g64
NtRp1111
(dp1112
g67
(dp1113
g87
g88
ssg76
g1107
sg69
(lp1114
S'request_method'
p1115
asbag62
(g83
g64
NtRp1116
(dp1117
g67
(dp1118
g94
g95
ssg76
g1107
sg69
(lp1119
S':'
asbag62
(g83
g64
NtRp1120
(dp1121
g67
(dp1122
sg76
g1107
sg69
(lp1123
g62
(g63
g64
NtRp1124
(dp1125
g67
(dp1126
g75
I4
ssg76
g1120
sg69
(lp1127
S'GET'
p1128
asbasbasbag62
(g78
g64
NtRp1129
(dp1130
g67
(dp1131
sg76
g642
sg69
(lp1132
g62
(g83
g64
NtRp1133
(dp1134
g67
(dp1135
g87
g88
ssg76
g1129
sg69
(lp1136
S'script_name'
p1137
asbag62
(g83
g64
NtRp1138
(dp1139
g67
(dp1140
g94
g95
ssg76
g1129
sg69
(lp1141
S':'
asbag62
(g83
g64
NtRp1142
(dp1143
g67
(dp1144
sg76
g1129
sg69
(lp1145
g62
(g63
g64
NtRp1146
(dp1147
g67
(dp1148
g75
I4
ssg76
g1142
sg69
(lp1149
S''
asbasbasbag62
(g78
g64
NtRp1150
(dp1151
g67
(dp1152
sg76
g642
sg69
(lp1153
g62
(g83
g64
NtRp1154
(dp1155
g67
(dp1156
g87
g88
ssg76
g1150
sg69
(lp1157
S'server_name'
p1158
asbag62
(g83
g64
NtRp1159
(dp1160
g67
(dp1161
g94
g95
ssg76
g1150
sg69
(lp1162
S':'
asbag62
(g83
g64
NtRp1163
(dp1164
g67
(dp1165
sg76
g1150
sg69
(lp1166
g62
(g63
g64
NtRp1167
(dp1168
g67
(dp1169
g75
I4
ssg76
g1163
sg69
(lp1170
S'Magnus-Specialis.local'
p1171
asbasbasbag62
(g78
g64
NtRp1172
(dp1173
g67
(dp1174
sg76
g642
sg69
(lp1175
g62
(g83
g64
NtRp1176
(dp1177
g67
(dp1178
g87
g88
ssg76
g1172
sg69
(lp1179
S'server_port'
p1180
asbag62
(g83
g64
NtRp1181
(dp1182
g67
(dp1183
g94
g95
ssg76
g1172
sg69
(lp1184
S':'
asbag62
(g83
g64
NtRp1185
(dp1186
g67
(dp1187
sg76
g1172
sg69
(lp1188
g62
(g63
g64
NtRp1189
(dp1190
g67
(dp1191
g75
I4
ssg76
g1185
sg69
(lp1192
S'8000'
p1193
asbasbasbag62
(g78
g64
NtRp1194
(dp1195
g67
(dp1196
sg76
g642
sg69
(lp1197
g62
(g83
g64
NtRp1198
(dp1199
g67
(dp1200
g87
g88
ssg76
g1194
sg69
(lp1201
S'server_protocol'
p1202
asbag62
(g83
g64
NtRp1203
(dp1204
g67
(dp1205
g94
g95
ssg76
g1194
sg69
(lp1206
S':'
asbag62
(g83
g64
NtRp1207
(dp1208
g67
(dp1209
sg76
g1194
sg69
(lp1210
g62
(g63
g64
NtRp1211
(dp1212
g67
(dp1213
g75
I4
ssg76
g1207
sg69
(lp1214
S'HTTP/1.1'
p1215
asbasbasbag62
(g78
g64
NtRp1216
(dp1217
g67
(dp1218
sg76
g642
sg69
(lp1219
g62
(g83
g64
NtRp1220
(dp1221
g67
(dp1222
g87
g88
ssg76
g1216
sg69
(lp1223
S'server_software'
p1224
asbag62
(g83
g64
NtRp1225
(dp1226
g67
(dp1227
g94
g95
ssg76
g1216
sg69
(lp1228
S':'
asbag62
(g83
g64
NtRp1229
(dp1230
g67
(dp1231
sg76
g1216
sg69
(lp1232
g62
(g63
g64
NtRp1233
(dp1234
g67
(dp1235
g75
I4
ssg76
g1229
sg69
(lp1236
S'Rocket 1.2.4'
p1237
asbasbasbag62
(g78
g64
NtRp1238
(dp1239
g67
(dp1240
sg76
g642
sg69
(lp1241
g62
(g83
g64
NtRp1242
(dp1243
g67
(dp1244
g87
g88
ssg76
g1238
sg69
(lp1245
S'web2py_crontype'
p1246
asbag62
(g83
g64
NtRp1247
(dp1248
g67
(dp1249
g94
g95
ssg76
g1238
sg69
(lp1250
S':'
asbag62
(g83
g64
NtRp1251
(dp1252
g67
(dp1253
sg76
g1238
sg69
(lp1254
g62
(g63
g64
NtRp1255
(dp1256
g67
(dp1257
g75
I4
ssg76
g1251
sg69
(lp1258
S'hard'
p1259
asbasbasbag62
(g78
g64
NtRp1260
(dp1261
g67
(dp1262
sg76
g642
sg69
(lp1263
g62
(g83
g64
NtRp1264
(dp1265
g67
(dp1266
g87
g88
ssg76
g1260
sg69
(lp1267
S'web2py_path'
p1268
asbag62
(g83
g64
NtRp1269
(dp1270
g67
(dp1271
g94
g95
ssg76
g1260
sg69
(lp1272
S':'
asbag62
(g83
g64
NtRp1273
(dp1274
g67
(dp1275
sg76
g1260
sg69
(lp1276
g62
(g63
g64
NtRp1277
(dp1278
g67
(dp1279
g75
I4
ssg76
g1273
sg69
(lp1280
g689
asbasbasbag62
(g78
g64
NtRp1281
(dp1282
g67
(dp1283
sg76
g642
sg69
(lp1284
g62
(g83
g64
NtRp1285
(dp1286
g67
(dp1287
g87
g88
ssg76
g1281
sg69
(lp1288
S'web2py_version'
p1289
asbag62
(g83
g64
NtRp1290
(dp1291
g67
(dp1292
g94
g95
ssg76
g1281
sg69
(lp1293
S':'
asbag62
(g83
g64
NtRp1294
(dp1295
g67
(dp1296
sg76
g1281
sg69
(lp1297
g62
(g63
g64
NtRp1298
(dp1299
g67
(dp1300
g75
I4
ssg76
g1294
sg69
(lp1301
g62
(g71
g64
NtRp1302
(dp1303
g67
(dp1304
g75
I3
ssg76
Nsg69
(lp1305
g62
(g78
g64
NtRp1306
(dp1307
g67
(dp1308
sg76
g1302
sg69
(lp1309
g62
(g83
g64
NtRp1310
(dp1311
g67
(dp1312
sg76
g1306
sg69
(lp1313
g62
(g63
g64
NtRp1314
(dp1315
g67
(dp1316
g75
I3
ssg76
g1310
sg69
(lp1317
S'1'
asbasbasbag62
(g78
g64
NtRp1318
(dp1319
g67
(dp1320
sg76
g1302
sg69
(lp1321
g62
(g83
g64
NtRp1322
(dp1323
g67
(dp1324
sg76
g1318
sg69
(lp1325
g62
(g63
g64
NtRp1326
(dp1327
g67
(dp1328
g75
I3
ssg76
g1322
sg69
(lp1329
S'99'
p1330
asbasbasbag62
(g78
g64
NtRp1331
(dp1332
g67
(dp1333
sg76
g1302
sg69
(lp1334
g62
(g83
g64
NtRp1335
(dp1336
g67
(dp1337
sg76
g1331
sg69
(lp1338
g62
(g63
g64
NtRp1339
(dp1340
g67
(dp1341
g75
I3
ssg76
g1335
sg69
(lp1342
S'2'
asbasbasbag62
(g78
g64
NtRp1343
(dp1344
g67
(dp1345
sg76
g1302
sg69
(lp1346
g62
(g83
g64
NtRp1347
(dp1348
g67
(dp1349
sg76
g1343
sg69
(lp1350
g62
(g63
g64
NtRp1351
(dp1352
g67
(dp1353
g75
I3
ssg76
g1347
sg69
(lp1354
S'datetime.datetime(2011, 9, 26, 6, 55, 33)'
p1355
asbasbasbag62
(g78
g64
NtRp1356
(dp1357
g67
(dp1358
sg76
g1302
sg69
(lp1359
g62
(g83
g64
NtRp1360
(dp1361
g67
(dp1362
sg76
g1356
sg69
(lp1363
g62
(g63
g64
NtRp1364
(dp1365
g67
(dp1366
g75
I3
ssg76
g1360
sg69
(lp1367
S'stable'
p1368
asbasbasbasbasbasbasbag62
(g78
g64
NtRp1369
(dp1370
g67
(dp1371
sg76
g642
sg69
(lp1372
g62
(g83
g64
NtRp1373
(dp1374
g67
(dp1375
g87
g88
ssg76
g1369
sg69
(lp1376
S'wsgi_errors'
p1377
asbag62
(g83
g64
NtRp1378
(dp1379
g67
(dp1380
g94
g95
ssg76
g1369
sg69
(lp1381
S':'
asbag62
(g83
g64
NtRp1382
(dp1383
g67
(dp1384
sg76
g1369
sg69
(lp1385
g62
(g63
g64
NtRp1386
(dp1387
g67
(dp1388
g75
I4
ssg76
g1382
sg69
(lp1389
S"<open file '<stderr>', mode 'w' at 0x100281270>"
p1390
asbasbasbag62
(g78
g64
NtRp1391
(dp1392
g67
(dp1393
sg76
g642
sg69
(lp1394
g62
(g83
g64
NtRp1395
(dp1396
g67
(dp1397
g87
g88
ssg76
g1391
sg69
(lp1398
S'wsgi_file_wrapper'
p1399
asbag62
(g83
g64
NtRp1400
(dp1401
g67
(dp1402
g94
g95
ssg76
g1391
sg69
(lp1403
S':'
asbag62
(g83
g64
NtRp1404
(dp1405
g67
(dp1406
sg76
g1391
sg69
(lp1407
g62
(g63
g64
NtRp1408
(dp1409
g67
(dp1410
g75
I4
ssg76
g1404
sg69
(lp1411
S'<class wsgiref.util.FileWrapper at 0x1016d8db8>'
p1412
asbasbasbag62
(g78
g64
NtRp1413
(dp1414
g67
(dp1415
sg76
g642
sg69
(lp1416
g62
(g83
g64
NtRp1417
(dp1418
g67
(dp1419
g87
g88
ssg76
g1413
sg69
(lp1420
S'wsgi_input'
p1421
asbag62
(g83
g64
NtRp1422
(dp1423
g67
(dp1424
g94
g95
ssg76
g1413
sg69
(lp1425
S':'
asbag62
(g83
g64
NtRp1426
(dp1427
g67
(dp1428
sg76
g1413
sg69
(lp1429
g62
(g63
g64
NtRp1430
(dp1431
g67
(dp1432
g75
I4
ssg76
g1426
sg69
(lp1433
S'<socket._fileobject object at 0x10803f8d0>'
p1434
asbasbasbag62
(g78
g64
NtRp1435
(dp1436
g67
(dp1437
sg76
g642
sg69
(lp1438
g62
(g83
g64
NtRp1439
(dp1440
g67
(dp1441
g87
g88
ssg76
g1435
sg69
(lp1442
S'wsgi_multiprocess'
p1443
asbag62
(g83
g64
NtRp1444
(dp1445
g67
(dp1446
g94
g95
ssg76
g1435
sg69
(lp1447
S':'
asbag62
(g83
g64
NtRp1448
(dp1449
g67
(dp1450
sg76
g1435
sg69
(lp1451
g62
(g63
g64
NtRp1452
(dp1453
g67
(dp1454
g75
I4
ssg76
g1448
sg69
(lp1455
g105
asbasbasbag62
(g78
g64
NtRp1456
(dp1457
g67
(dp1458
sg76
g642
sg69
(lp1459
g62
(g83
g64
NtRp1460
(dp1461
g67
(dp1462
g87
g88
ssg76
g1456
sg69
(lp1463
S'wsgi_multithread'
p1464
asbag62
(g83
g64
NtRp1465
(dp1466
g67
(dp1467
g94
g95
ssg76
g1456
sg69
(lp1468
S':'
asbag62
(g83
g64
NtRp1469
(dp1470
g67
(dp1471
sg76
g1456
sg69
(lp1472
g62
(g63
g64
NtRp1473
(dp1474
g67
(dp1475
g75
I4
ssg76
g1469
sg69
(lp1476
S'True'
p1477
asbasbasbag62
(g78
g64
NtRp1478
(dp1479
g67
(dp1480
sg76
g642
sg69
(lp1481
g62
(g83
g64
NtRp1482
(dp1483
g67
(dp1484
g87
g88
ssg76
g1478
sg69
(lp1485
S'wsgi_run_once'
p1486
asbag62
(g83
g64
NtRp1487
(dp1488
g67
(dp1489
g94
g95
ssg76
g1478
sg69
(lp1490
S':'
asbag62
(g83
g64
NtRp1491
(dp1492
g67
(dp1493
sg76
g1478
sg69
(lp1494
g62
(g63
g64
NtRp1495
(dp1496
g67
(dp1497
g75
I4
ssg76
g1491
sg69
(lp1498
g105
asbasbasbag62
(g78
g64
NtRp1499
(dp1500
g67
(dp1501
sg76
g642
sg69
(lp1502
g62
(g83
g64
NtRp1503
(dp1504
g67
(dp1505
g87
g88
ssg76
g1499
sg69
(lp1506
S'wsgi_url_scheme'
p1507
asbag62
(g83
g64
NtRp1508
(dp1509
g67
(dp1510
g94
g95
ssg76
g1499
sg69
(lp1511
S':'
asbag62
(g83
g64
NtRp1512
(dp1513
g67
(dp1514
sg76
g1499
sg69
(lp1515
g62
(g63
g64
NtRp1516
(dp1517
g67
(dp1518
g75
I4
ssg76
g1512
sg69
(lp1519
S'http'
p1520
asbasbasbag62
(g78
g64
NtRp1521
(dp1522
g67
(dp1523
sg76
g642
sg69
(lp1524
g62
(g83
g64
NtRp1525
(dp1526
g67
(dp1527
g87
g88
ssg76
g1521
sg69
(lp1528
S'wsgi_version'
p1529
asbag62
(g83
g64
NtRp1530
(dp1531
g67
(dp1532
g94
g95
ssg76
g1521
sg69
(lp1533
S':'
asbag62
(g83
g64
NtRp1534
(dp1535
g67
(dp1536
sg76
g1521
sg69
(lp1537
g62
(g63
g64
NtRp1538
(dp1539
g67
(dp1540
g75
I4
ssg76
g1534
sg69
(lp1541
g62
(g71
g64
NtRp1542
(dp1543
g67
(dp1544
g75
I3
ssg76
Nsg69
(lp1545
g62
(g78
g64
NtRp1546
(dp1547
g67
(dp1548
sg76
g1542
sg69
(lp1549
g62
(g83
g64
NtRp1550
(dp1551
g67
(dp1552
sg76
g1546
sg69
(lp1553
g62
(g63
g64
NtRp1554
(dp1555
g67
(dp1556
g75
I3
ssg76
g1550
sg69
(lp1557
S'1'
asbasbasbag62
(g78
g64
NtRp1558
(dp1559
g67
(dp1560
sg76
g1542
sg69
(lp1561
g62
(g83
g64
NtRp1562
(dp1563
g67
(dp1564
sg76
g1558
sg69
(lp1565
g62
(g63
g64
NtRp1566
(dp1567
g67
(dp1568
g75
I3
ssg76
g1562
sg69
(lp1569
S'0'
asbasbasbasbasbasbasbasbasbasbasbag62
(g78
g64
NtRp1570
(dp1571
g67
(dp1572
sg76
g72
sg69
(lp1573
g62
(g83
g64
NtRp1574
(dp1575
g67
(dp1576
g87
g88
ssg76
g1570
sg69
(lp1577
S'extension'
p1578
asbag62
(g83
g64
NtRp1579
(dp1580
g67
(dp1581
g94
g95
ssg76
g1570
sg69
(lp1582
S':'
asbag62
(g83
g64
NtRp1583
(dp1584
g67
(dp1585
sg76
g1570
sg69
(lp1586
g62
(g63
g64
NtRp1587
(dp1588
g67
(dp1589
g75
I5
ssg76
g1583
sg69
(lp1590
S'html'
p1591
asbasbasbag62
(g78
g64
NtRp1592
(dp1593
g67
(dp1594
sg76
g72
sg69
(lp1595
g62
(g83
g64
NtRp1596
(dp1597
g67
(dp1598
g87
g88
ssg76
g1592
sg69
(lp1599
S'folder'
p1600
asbag62
(g83
g64
NtRp1601
(dp1602
g67
(dp1603
g94
g95
ssg76
g1592
sg69
(lp1604
S':'
asbag62
(g83
g64
NtRp1605
(dp1606
g67
(dp1607
sg76
g1592
sg69
(lp1608
g62
(g63
g64
NtRp1609
(dp1610
g67
(dp1611
g75
I5
ssg76
g1605
sg69
(lp1612
S'/Users/schultzc/Documents/[Buffer]Overflow/github/fried/src/applications/fried/'
p1613
asbasbasbag62
(g78
g64
NtRp1614
(dp1615
g67
(dp1616
sg76
g72
sg69
(lp1617
g62
(g83
g64
NtRp1618
(dp1619
g67
(dp1620
g87
g88
ssg76
g1614
sg69
(lp1621
S'function'
p1622
asbag62
(g83
g64
NtRp1623
(dp1624
g67
(dp1625
g94
g95
ssg76
g1614
sg69
(lp1626
S':'
asbag62
(g83
g64
NtRp1627
(dp1628
g67
(dp1629
sg76
g1614
sg69
(lp1630
g62
(g63
g64
NtRp1631
(dp1632
g67
(dp1633
g75
I5
ssg76
g1627
sg69
(lp1634
S'index'
p1635
asbasbasbag62
(g78
g64
NtRp1636
(dp1637
g67
(dp1638
sg76
g72
sg69
(lp1639
g62
(g83
g64
NtRp1640
(dp1641
g67
(dp1642
g87
g88
ssg76
g1636
sg69
(lp1643
S'get_vars'
p1644
asbag62
(g83
g64
NtRp1645
(dp1646
g67
(dp1647
g94
g95
ssg76
g1636
sg69
(lp1648
S':'
asbag62
(g83
g64
NtRp1649
(dp1650
g67
(dp1651
sg76
g1636
sg69
(lp1652
g62
(g63
g64
NtRp1653
(dp1654
g67
(dp1655
g75
I5
ssg76
g1649
sg69
(lp1656
g62
(g71
g64
NtRp1657
(dp1658
g67
(dp1659
g75
I4
ssg76
Nsg69
(lp1660
sbasbasbasbag62
(g78
g64
NtRp1661
(dp1662
g67
(dp1663
sg76
g72
sg69
(lp1664
g62
(g83
g64
NtRp1665
(dp1666
g67
(dp1667
g87
g88
ssg76
g1661
sg69
(lp1668
S'global_settings'
p1669
asbag62
(g83
g64
NtRp1670
(dp1671
g67
(dp1672
g94
g95
ssg76
g1661
sg69
(lp1673
S':'
asbag62
(g83
g64
NtRp1674
(dp1675
g67
(dp1676
sg76
g1661
sg69
(lp1677
g62
(g63
g64
NtRp1678
(dp1679
g67
(dp1680
g75
I5
ssg76
g1674
sg69
(lp1681
g62
(g71
g64
NtRp1682
(dp1683
g67
(dp1684
g75
I4
ssg76
Nsg69
(lp1685
g62
(g78
g64
NtRp1686
(dp1687
g67
(dp1688
sg76
g1682
sg69
(lp1689
g62
(g83
g64
NtRp1690
(dp1691
g67
(dp1692
g87
g88
ssg76
g1686
sg69
(lp1693
g654
asbag62
(g83
g64
NtRp1694
(dp1695
g67
(dp1696
g94
g95
ssg76
g1686
sg69
(lp1697
S':'
asbag62
(g83
g64
NtRp1698
(dp1699
g67
(dp1700
sg76
g1686
sg69
(lp1701
g62
(g63
g64
NtRp1702
(dp1703
g67
(dp1704
g75
I4
ssg76
g1698
sg69
(lp1705
S"set(['/Users/schultzc/Documents/[Buffer]Overflow/github/fried/src/applications/admin/', '/Users/schultzc/Documents/[Buffer]Overflow/github/fried/src/applications/welcome/', '/Users/schultzc/Documents/[Buffer]Overflow/github/fried/src/applications/fried/'])"
p1706
asbasbasbag62
(g78
g64
NtRp1707
(dp1708
g67
(dp1709
sg76
g1682
sg69
(lp1710
g62
(g83
g64
NtRp1711
(dp1712
g67
(dp1713
g87
g88
ssg76
g1707
sg69
(lp1714
g676
asbag62
(g83
g64
NtRp1715
(dp1716
g67
(dp1717
g94
g95
ssg76
g1707
sg69
(lp1718
S':'
asbag62
(g83
g64
NtRp1719
(dp1720
g67
(dp1721
sg76
g1707
sg69
(lp1722
g62
(g63
g64
NtRp1723
(dp1724
g67
(dp1725
g75
I4
ssg76
g1719
sg69
(lp1726
g689
asbasbasbag62
(g78
g64
NtRp1727
(dp1728
g67
(dp1729
sg76
g1682
sg69
(lp1730
g62
(g83
g64
NtRp1731
(dp1732
g67
(dp1733
g87
g88
ssg76
g1727
sg69
(lp1734
g698
asbag62
(g83
g64
NtRp1735
(dp1736
g67
(dp1737
g94
g95
ssg76
g1727
sg69
(lp1738
S':'
asbag62
(g83
g64
NtRp1739
(dp1740
g67
(dp1741
sg76
g1727
sg69
(lp1742
g62
(g63
g64
NtRp1743
(dp1744
g67
(dp1745
g75
I4
ssg76
g1739
sg69
(lp1746
g62
(g71
g64
NtRp1747
(dp1748
g67
(dp1749
g75
I3
ssg76
Nsg69
(lp1750
sbasbasbasbag62
(g78
g64
NtRp1751
(dp1752
g67
(dp1753
sg76
g1682
sg69
(lp1754
g62
(g83
g64
NtRp1755
(dp1756
g67
(dp1757
g87
g88
ssg76
g1751
sg69
(lp1758
g723
asbag62
(g83
g64
NtRp1759
(dp1760
g67
(dp1761
g94
g95
ssg76
g1751
sg69
(lp1762
S':'
asbag62
(g83
g64
NtRp1763
(dp1764
g67
(dp1765
sg76
g1751
sg69
(lp1766
g62
(g63
g64
NtRp1767
(dp1768
g67
(dp1769
g75
I4
ssg76
g1763
sg69
(lp1770
S"<Values at 0x1018f3290: {'verbose': False, 'ip': '127.0.0.1', 'shutdown_timeout': 5, 'taskbar': False, 'nocron': False, 'pid_filename': 'httpserver.pid', 'maxthreads': None, 'softcron': False, 'server_name': 'Magnus-Specialis.local', 'bpython': False, 'nogui': False, 'port': 8000, 'extcron': False, 'debuglevel': 30, 'test': None, 'folder': '/Users/schultzc/Documents/[Buffer]Overflow/github/fried/src', 'config': '', 'import_models': False, 'winservice': '', 'shell': None, 'run': '', 'log_filename': 'httpserver.log', 'args': [''], 'ssl_ca_certificate': None, 'scheduler': None, 'profiler_filename': None, 'ssl_private_key': '', 'password': '<ask>', 'request_queue_size': 5, 'ssl_certificate': '', 'cronjob': False, 'plain': False, 'quiet': False, 'interfaces': None, 'minthreads': None, 'timeout': 10, 'numthreads': None, 'nobanner': False}>"
p1771
asbasbasbag62
(g78
g64
NtRp1772
(dp1773
g67
(dp1774
sg76
g1682
sg69
(lp1775
g62
(g83
g64
NtRp1776
(dp1777
g67
(dp1778
g87
g88
ssg76
g1772
sg69
(lp1779
g745
asbag62
(g83
g64
NtRp1780
(dp1781
g67
(dp1782
g94
g95
ssg76
g1772
sg69
(lp1783
S':'
asbag62
(g83
g64
NtRp1784
(dp1785
g67
(dp1786
sg76
g1772
sg69
(lp1787
g62
(g63
g64
NtRp1788
(dp1789
g67
(dp1790
g75
I4
ssg76
g1784
sg69
(lp1791
S'set([])'
p1792
asbasbasbag62
(g78
g64
NtRp1793
(dp1794
g67
(dp1795
sg76
g1682
sg69
(lp1796
g62
(g83
g64
NtRp1797
(dp1798
g67
(dp1799
g87
g88
ssg76
g1793
sg69
(lp1800
g767
asbag62
(g83
g64
NtRp1801
(dp1802
g67
(dp1803
g94
g95
ssg76
g1793
sg69
(lp1804
S':'
asbag62
(g83
g64
NtRp1805
(dp1806
g67
(dp1807
sg76
g1793
sg69
(lp1808
g62
(g63
g64
NtRp1809
(dp1810
g67
(dp1811
g75
I4
ssg76
g1805
sg69
(lp1812
g105
asbasbasbag62
(g78
g64
NtRp1813
(dp1814
g67
(dp1815
sg76
g1682
sg69
(lp1816
g62
(g83
g64
NtRp1817
(dp1818
g67
(dp1819
g87
g88
ssg76
g1813
sg69
(lp1820
g788
asbag62
(g83
g64
NtRp1821
(dp1822
g67
(dp1823
g94
g95
ssg76
g1813
sg69
(lp1824
S':'
asbag62
(g83
g64
NtRp1825
(dp1826
g67
(dp1827
sg76
g1813
sg69
(lp1828
g62
(g63
g64
NtRp1829
(dp1830
g67
(dp1831
g75
I4
ssg76
g1825
sg69
(lp1832
g801
asbasbasbag62
(g78
g64
NtRp1833
(dp1834
g67
(dp1835
sg76
g1682
sg69
(lp1836
g62
(g83
g64
NtRp1837
(dp1838
g67
(dp1839
g87
g88
ssg76
g1833
sg69
(lp1840
g1008
asbag62
(g83
g64
NtRp1841
(dp1842
g67
(dp1843
g94
g95
ssg76
g1833
sg69
(lp1844
S':'
asbag62
(g83
g64
NtRp1845
(dp1846
g67
(dp1847
sg76
g1833
sg69
(lp1848
g62
(g63
g64
NtRp1849
(dp1850
g67
(dp1851
g75
I4
ssg76
g1845
sg69
(lp1852
g105
asbasbasbag62
(g78
g64
NtRp1853
(dp1854
g67
(dp1855
sg76
g1682
sg69
(lp1856
g62
(g83
g64
NtRp1857
(dp1858
g67
(dp1859
g87
g88
ssg76
g1853
sg69
(lp1860
g1246
asbag62
(g83
g64
NtRp1861
(dp1862
g67
(dp1863
g94
g95
ssg76
g1853
sg69
(lp1864
S':'
asbag62
(g83
g64
NtRp1865
(dp1866
g67
(dp1867
sg76
g1853
sg69
(lp1868
g62
(g63
g64
NtRp1869
(dp1870
g67
(dp1871
g75
I4
ssg76
g1865
sg69
(lp1872
g1259
asbasbasbag62
(g78
g64
NtRp1873
(dp1874
g67
(dp1875
sg76
g1682
sg69
(lp1876
g62
(g83
g64
NtRp1877
(dp1878
g67
(dp1879
g87
g88
ssg76
g1873
sg69
(lp1880
g1289
asbag62
(g83
g64
NtRp1881
(dp1882
g67
(dp1883
g94
g95
ssg76
g1873
sg69
(lp1884
S':'
asbag62
(g83
g64
NtRp1885
(dp1886
g67
(dp1887
sg76
g1873
sg69
(lp1888
g62
(g63
g64
NtRp1889
(dp1890
g67
(dp1891
g75
I4
ssg76
g1885
sg69
(lp1892
g62
(g71
g64
NtRp1893
(dp1894
g67
(dp1895
g75
I3
ssg76
Nsg69
(lp1896
g62
(g78
g64
NtRp1897
(dp1898
g67
(dp1899
sg76
g1893
sg69
(lp1900
g62
(g83
g64
NtRp1901
(dp1902
g67
(dp1903
sg76
g1897
sg69
(lp1904
g62
(g63
g64
NtRp1905
(dp1906
g67
(dp1907
g75
I3
ssg76
g1901
sg69
(lp1908
S'1'
asbasbasbag62
(g78
g64
NtRp1909
(dp1910
g67
(dp1911
sg76
g1893
sg69
(lp1912
g62
(g83
g64
NtRp1913
(dp1914
g67
(dp1915
sg76
g1909
sg69
(lp1916
g62
(g63
g64
NtRp1917
(dp1918
g67
(dp1919
g75
I3
ssg76
g1913
sg69
(lp1920
S'99'
p1921
asbasbasbag62
(g78
g64
NtRp1922
(dp1923
g67
(dp1924
sg76
g1893
sg69
(lp1925
g62
(g83
g64
NtRp1926
(dp1927
g67
(dp1928
sg76
g1922
sg69
(lp1929
g62
(g63
g64
NtRp1930
(dp1931
g67
(dp1932
g75
I3
ssg76
g1926
sg69
(lp1933
S'2'
asbasbasbag62
(g78
g64
NtRp1934
(dp1935
g67
(dp1936
sg76
g1893
sg69
(lp1937
g62
(g83
g64
NtRp1938
(dp1939
g67
(dp1940
sg76
g1934
sg69
(lp1941
g62
(g63
g64
NtRp1942
(dp1943
g67
(dp1944
g75
I3
ssg76
g1938
sg69
(lp1945
S'datetime.datetime(2011, 9, 26, 6, 55, 33)'
p1946
asbasbasbag62
(g78
g64
NtRp1947
(dp1948
g67
(dp1949
sg76
g1893
sg69
(lp1950
g62
(g83
g64
NtRp1951
(dp1952
g67
(dp1953
sg76
g1947
sg69
(lp1954
g62
(g63
g64
NtRp1955
(dp1956
g67
(dp1957
g75
I3
ssg76
g1951
sg69
(lp1958
g1368
asbasbasbasbasbasbasbasbasbasbasbag62
(g78
g64
NtRp1959
(dp1960
g67
(dp1961
sg76
g72
sg69
(lp1962
g62
(g83
g64
NtRp1963
(dp1964
g67
(dp1965
g87
g88
ssg76
g1959
sg69
(lp1966
S'is_https'
p1967
asbag62
(g83
g64
NtRp1968
(dp1969
g67
(dp1970
g94
g95
ssg76
g1959
sg69
(lp1971
S':'
asbag62
(g83
g64
NtRp1972
(dp1973
g67
(dp1974
sg76
g1959
sg69
(lp1975
g62
(g63
g64
NtRp1976
(dp1977
g67
(dp1978
g75
I5
ssg76
g1972
sg69
(lp1979
g105
asbasbasbag62
(g78
g64
NtRp1980
(dp1981
g67
(dp1982
sg76
g72
sg69
(lp1983
g62
(g83
g64
NtRp1984
(dp1985
g67
(dp1986
g87
g88
ssg76
g1980
sg69
(lp1987
S'is_local'
p1988
asbag62
(g83
g64
NtRp1989
(dp1990
g67
(dp1991
g94
g95
ssg76
g1980
sg69
(lp1992
S':'
asbag62
(g83
g64
NtRp1993
(dp1994
g67
(dp1995
sg76
g1980
sg69
(lp1996
g62
(g63
g64
NtRp1997
(dp1998
g67
(dp1999
g75
I5
ssg76
g1993
sg69
(lp2000
g1477
asbasbasbag62
(g78
g64
NtRp2001
(dp2002
g67
(dp2003
sg76
g72
sg69
(lp2004
g62
(g83
g64
NtRp2005
(dp2006
g67
(dp2007
g87
g88
ssg76
g2001
sg69
(lp2008
S'is_restful'
p2009
asbag62
(g83
g64
NtRp2010
(dp2011
g67
(dp2012
g94
g95
ssg76
g2001
sg69
(lp2013
S':'
asbag62
(g83
g64
NtRp2014
(dp2015
g67
(dp2016
sg76
g2001
sg69
(lp2017
g62
(g63
g64
NtRp2018
(dp2019
g67
(dp2020
g75
I5
ssg76
g2014
sg69
(lp2021
g105
asbasbasbag62
(g78
g64
NtRp2022
(dp2023
g67
(dp2024
sg76
g72
sg69
(lp2025
g62
(g83
g64
NtRp2026
(dp2027
g67
(dp2028
g87
g88
ssg76
g2022
sg69
(lp2029
S'now'
p2030
asbag62
(g83
g64
NtRp2031
(dp2032
g67
(dp2033
g94
g95
ssg76
g2022
sg69
(lp2034
S':'
asbag62
(g83
g64
NtRp2035
(dp2036
g67
(dp2037
sg76
g2022
sg69
(lp2038
g62
(g63
g64
NtRp2039
(dp2040
g67
(dp2041
g75
I5
ssg76
g2035
sg69
(lp2042
S'datetime.datetime(2011, 11, 15, 22, 19, 1, 364585)'
p2043
asbasbasbag62
(g78
g64
NtRp2044
(dp2045
g67
(dp2046
sg76
g72
sg69
(lp2047
g62
(g83
g64
NtRp2048
(dp2049
g67
(dp2050
g87
g88
ssg76
g2044
sg69
(lp2051
S'post_vars'
p2052
asbag62
(g83
g64
NtRp2053
(dp2054
g67
(dp2055
g94
g95
ssg76
g2044
sg69
(lp2056
S':'
asbag62
(g83
g64
NtRp2057
(dp2058
g67
(dp2059
sg76
g2044
sg69
(lp2060
g62
(g63
g64
NtRp2061
(dp2062
g67
(dp2063
g75
I5
ssg76
g2057
sg69
(lp2064
g62
(g71
g64
NtRp2065
(dp2066
g67
(dp2067
g75
I4
ssg76
Nsg69
(lp2068
sbasbasbasbag62
(g78
g64
NtRp2069
(dp2070
g67
(dp2071
sg76
g72
sg69
(lp2072
g62
(g83
g64
NtRp2073
(dp2074
g67
(dp2075
g87
g88
ssg76
g2069
sg69
(lp2076
S'raw_args'
p2077
asbag62
(g83
g64
NtRp2078
(dp2079
g67
(dp2080
g94
g95
ssg76
g2069
sg69
(lp2081
S':'
asbag62
(g83
g64
NtRp2082
(dp2083
g67
(dp2084
sg76
g2069
sg69
(lp2085
g62
(g63
g64
NtRp2086
(dp2087
g67
(dp2088
g75
I5
ssg76
g2082
sg69
(lp2089
S''
asbasbasbag62
(g78
g64
NtRp2090
(dp2091
g67
(dp2092
sg76
g72
sg69
(lp2093
g62
(g83
g64
NtRp2094
(dp2095
g67
(dp2096
g87
g88
ssg76
g2090
sg69
(lp2097
S'url'
p2098
asbag62
(g83
g64
NtRp2099
(dp2100
g67
(dp2101
g94
g95
ssg76
g2090
sg69
(lp2102
S':'
asbag62
(g83
g64
NtRp2103
(dp2104
g67
(dp2105
sg76
g2090
sg69
(lp2106
g62
(g63
g64
NtRp2107
(dp2108
g67
(dp2109
g75
I5
ssg76
g2103
sg69
(lp2110
S'/fried/default/index'
p2111
asbasbasbag62
(g78
g64
NtRp2112
(dp2113
g67
(dp2114
sg76
g72
sg69
(lp2115
g62
(g83
g64
NtRp2116
(dp2117
g67
(dp2118
g87
g88
ssg76
g2112
sg69
(lp2119
S'utcnow'
p2120
asbag62
(g83
g64
NtRp2121
(dp2122
g67
(dp2123
g94
g95
ssg76
g2112
sg69
(lp2124
S':'
asbag62
(g83
g64
NtRp2125
(dp2126
g67
(dp2127
sg76
g2112
sg69
(lp2128
g62
(g63
g64
NtRp2129
(dp2130
g67
(dp2131
g75
I5
ssg76
g2125
sg69
(lp2132
S'datetime.datetime(2011, 11, 16, 5, 19, 1, 364602)'
p2133
asbasbasbag62
(g78
g64
NtRp2134
(dp2135
g67
(dp2136
sg76
g72
sg69
(lp2137
g62
(g83
g64
NtRp2138
(dp2139
g67
(dp2140
g87
g88
ssg76
g2134
sg69
(lp2141
S'uuid'
p2142
asbag62
(g83
g64
NtRp2143
(dp2144
g67
(dp2145
g94
g95
ssg76
g2134
sg69
(lp2146
S':'
asbag62
(g83
g64
NtRp2147
(dp2148
g67
(dp2149
sg76
g2134
sg69
(lp2150
g62
(g63
g64
NtRp2151
(dp2152
g67
(dp2153
g75
I5
ssg76
g2147
sg69
(lp2154
S'fried/127.0.0.1.2011-11-15.22-19-01.3c57dd66-4efc-40a5-a4ed-df62bc555a52'
p2155
asbasbasbag62
(g78
g64
NtRp2156
(dp2157
g67
(dp2158
sg76
g72
sg69
(lp2159
g62
(g83
g64
NtRp2160
(dp2161
g67
(dp2162
g87
g88
ssg76
g2156
sg69
(lp2163
S'vars'
p2164
asbag62
(g83
g64
NtRp2165
(dp2166
g67
(dp2167
g94
g95
ssg76
g2156
sg69
(lp2168
S':'
asbag62
(g83
g64
NtRp2169
(dp2170
g67
(dp2171
sg76
g2156
sg69
(lp2172
g62
(g63
g64
NtRp2173
(dp2174
g67
(dp2175
g75
I5
ssg76
g2169
sg69
(lp2176
g62
(g71
g64
NtRp2177
(dp2178
g67
(dp2179
g75
I4
ssg76
Nsg69
(lp2180
sbasbasbasbag62
(g78
g64
NtRp2181
(dp2182
g67
(dp2183
sg76
g72
sg69
(lp2184
g62
(g83
g64
NtRp2185
(dp2186
g67
(dp2187
g87
g88
ssg76
g2181
sg69
(lp2188
S'wsgi'
p2189
asbag62
(g83
g64
NtRp2190
(dp2191
g67
(dp2192
g94
g95
ssg76
g2181
sg69
(lp2193
S':'
asbag62
(g83
g64
NtRp2194
(dp2195
g67
(dp2196
sg76
g2181
sg69
(lp2197
g62
(g63
g64
NtRp2198
(dp2199
g67
(dp2200
g75
I5
ssg76
g2194
sg69
(lp2201
g62
(g71
g64
NtRp2202
(dp2203
g67
(dp2204
g75
I4
ssg76
Nsg69
(lp2205
g62
(g78
g64
NtRp2206
(dp2207
g67
(dp2208
sg76
g2202
sg69
(lp2209
g62
(g83
g64
NtRp2210
(dp2211
g67
(dp2212
g87
g88
ssg76
g2206
sg69
(lp2213
S'environ'
p2214
asbag62
(g83
g64
NtRp2215
(dp2216
g67
(dp2217
g94
g95
ssg76
g2206
sg69
(lp2218
S':'
asbag62
(g83
g64
NtRp2219
(dp2220
g67
(dp2221
sg76
g2206
sg69
(lp2222
g62
(g63
g64
NtRp2223
(dp2224
g67
(dp2225
g75
I4
ssg76
g2219
sg69
(lp2226
g62
(g71
g64
NtRp2227
(dp2228
g67
(dp2229
g75
I3
ssg76
Nsg69
(lp2230
g62
(g78
g64
NtRp2231
(dp2232
g67
(dp2233
sg76
g2227
sg69
(lp2234
g62
(g83
g64
NtRp2235
(dp2236
g67
(dp2237
g87
g88
ssg76
g2231
sg69
(lp2238
S'HTTP_ACCEPT'
p2239
asbag62
(g83
g64
NtRp2240
(dp2241
g67
(dp2242
g94
g95
ssg76
g2231
sg69
(lp2243
S':'
asbag62
(g83
g64
NtRp2244
(dp2245
g67
(dp2246
sg76
g2231
sg69
(lp2247
g62
(g63
g64
NtRp2248
(dp2249
g67
(dp2250
g75
I3
ssg76
g2244
sg69
(lp2251
g823
asbasbasbag62
(g78
g64
NtRp2252
(dp2253
g67
(dp2254
sg76
g2227
sg69
(lp2255
g62
(g83
g64
NtRp2256
(dp2257
g67
(dp2258
g87
g88
ssg76
g2252
sg69
(lp2259
S'HTTP_ACCEPT_CHARSET'
p2260
asbag62
(g83
g64
NtRp2261
(dp2262
g67
(dp2263
g94
g95
ssg76
g2252
sg69
(lp2264
S':'
asbag62
(g83
g64
NtRp2265
(dp2266
g67
(dp2267
sg76
g2252
sg69
(lp2268
g62
(g63
g64
NtRp2269
(dp2270
g67
(dp2271
g75
I3
ssg76
g2265
sg69
(lp2272
g845
asbasbasbag62
(g78
g64
NtRp2273
(dp2274
g67
(dp2275
sg76
g2227
sg69
(lp2276
g62
(g83
g64
NtRp2277
(dp2278
g67
(dp2279
g87
g88
ssg76
g2273
sg69
(lp2280
S'HTTP_ACCEPT_ENCODING'
p2281
asbag62
(g83
g64
NtRp2282
(dp2283
g67
(dp2284
g94
g95
ssg76
g2273
sg69
(lp2285
S':'
asbag62
(g83
g64
NtRp2286
(dp2287
g67
(dp2288
sg76
g2273
sg69
(lp2289
g62
(g63
g64
NtRp2290
(dp2291
g67
(dp2292
g75
I3
ssg76
g2286
sg69
(lp2293
g867
asbasbasbag62
(g78
g64
NtRp2294
(dp2295
g67
(dp2296
sg76
g2227
sg69
(lp2297
g62
(g83
g64
NtRp2298
(dp2299
g67
(dp2300
g87
g88
ssg76
g2294
sg69
(lp2301
S'HTTP_ACCEPT_LANGUAGE'
p2302
asbag62
(g83
g64
NtRp2303
(dp2304
g67
(dp2305
g94
g95
ssg76
g2294
sg69
(lp2306
S':'
asbag62
(g83
g64
NtRp2307
(dp2308
g67
(dp2309
sg76
g2294
sg69
(lp2310
g62
(g63
g64
NtRp2311
(dp2312
g67
(dp2313
g75
I3
ssg76
g2307
sg69
(lp2314
g889
asbasbasbag62
(g78
g64
NtRp2315
(dp2316
g67
(dp2317
sg76
g2227
sg69
(lp2318
g62
(g83
g64
NtRp2319
(dp2320
g67
(dp2321
g87
g88
ssg76
g2315
sg69
(lp2322
S'HTTP_CACHE_CONTROL'
p2323
asbag62
(g83
g64
NtRp2324
(dp2325
g67
(dp2326
g94
g95
ssg76
g2315
sg69
(lp2327
S':'
asbag62
(g83
g64
NtRp2328
(dp2329
g67
(dp2330
sg76
g2315
sg69
(lp2331
g62
(g63
g64
NtRp2332
(dp2333
g67
(dp2334
g75
I3
ssg76
g2328
sg69
(lp2335
g911
asbasbasbag62
(g78
g64
NtRp2336
(dp2337
g67
(dp2338
sg76
g2227
sg69
(lp2339
g62
(g83
g64
NtRp2340
(dp2341
g67
(dp2342
g87
g88
ssg76
g2336
sg69
(lp2343
S'HTTP_CONNECTION'
p2344
asbag62
(g83
g64
NtRp2345
(dp2346
g67
(dp2347
g94
g95
ssg76
g2336
sg69
(lp2348
S':'
asbag62
(g83
g64
NtRp2349
(dp2350
g67
(dp2351
sg76
g2336
sg69
(lp2352
g62
(g63
g64
NtRp2353
(dp2354
g67
(dp2355
g75
I3
ssg76
g2349
sg69
(lp2356
g933
asbasbasbag62
(g78
g64
NtRp2357
(dp2358
g67
(dp2359
sg76
g2227
sg69
(lp2360
g62
(g83
g64
NtRp2361
(dp2362
g67
(dp2363
g87
g88
ssg76
g2357
sg69
(lp2364
S'HTTP_COOKIE'
p2365
asbag62
(g83
g64
NtRp2366
(dp2367
g67
(dp2368
g94
g95
ssg76
g2357
sg69
(lp2369
S':'
asbag62
(g83
g64
NtRp2370
(dp2371
g67
(dp2372
sg76
g2357
sg69
(lp2373
g62
(g63
g64
NtRp2374
(dp2375
g67
(dp2376
g75
I3
ssg76
g2370
sg69
(lp2377
g955
asbasbasbag62
(g78
g64
NtRp2378
(dp2379
g67
(dp2380
sg76
g2227
sg69
(lp2381
g62
(g83
g64
NtRp2382
(dp2383
g67
(dp2384
g87
g88
ssg76
g2378
sg69
(lp2385
S'HTTP_HOST'
p2386
asbag62
(g83
g64
NtRp2387
(dp2388
g67
(dp2389
g94
g95
ssg76
g2378
sg69
(lp2390
S':'
asbag62
(g83
g64
NtRp2391
(dp2392
g67
(dp2393
sg76
g2378
sg69
(lp2394
g62
(g63
g64
NtRp2395
(dp2396
g67
(dp2397
g75
I3
ssg76
g2391
sg69
(lp2398
g977
asbasbasbag62
(g78
g64
NtRp2399
(dp2400
g67
(dp2401
sg76
g2227
sg69
(lp2402
g62
(g83
g64
NtRp2403
(dp2404
g67
(dp2405
g87
g88
ssg76
g2399
sg69
(lp2406
S'HTTP_USER_AGENT'
p2407
asbag62
(g83
g64
NtRp2408
(dp2409
g67
(dp2410
g94
g95
ssg76
g2399
sg69
(lp2411
S':'
asbag62
(g83
g64
NtRp2412
(dp2413
g67
(dp2414
sg76
g2399
sg69
(lp2415
g62
(g63
g64
NtRp2416
(dp2417
g67
(dp2418
g75
I3
ssg76
g2412
sg69
(lp2419
g999
asbasbasbag62
(g78
g64
NtRp2420
(dp2421
g67
(dp2422
sg76
g2227
sg69
(lp2423
g62
(g83
g64
NtRp2424
(dp2425
g67
(dp2426
g87
g88
ssg76
g2420
sg69
(lp2427
S'PATH_INFO'
p2428
asbag62
(g83
g64
NtRp2429
(dp2430
g67
(dp2431
g94
g95
ssg76
g2420
sg69
(lp2432
S':'
asbag62
(g83
g64
NtRp2433
(dp2434
g67
(dp2435
sg76
g2420
sg69
(lp2436
g62
(g63
g64
NtRp2437
(dp2438
g67
(dp2439
g75
I3
ssg76
g2433
sg69
(lp2440
g1042
asbasbasbag62
(g78
g64
NtRp2441
(dp2442
g67
(dp2443
sg76
g2227
sg69
(lp2444
g62
(g83
g64
NtRp2445
(dp2446
g67
(dp2447
g87
g88
ssg76
g2441
sg69
(lp2448
S'QUERY_STRING'
p2449
asbag62
(g83
g64
NtRp2450
(dp2451
g67
(dp2452
g94
g95
ssg76
g2441
sg69
(lp2453
S':'
asbag62
(g83
g64
NtRp2454
(dp2455
g67
(dp2456
sg76
g2441
sg69
(lp2457
g62
(g63
g64
NtRp2458
(dp2459
g67
(dp2460
g75
I3
ssg76
g2454
sg69
(lp2461
S''
asbasbasbag62
(g78
g64
NtRp2462
(dp2463
g67
(dp2464
sg76
g2227
sg69
(lp2465
g62
(g83
g64
NtRp2466
(dp2467
g67
(dp2468
g87
g88
ssg76
g2462
sg69
(lp2469
S'REMOTE_ADDR'
p2470
asbag62
(g83
g64
NtRp2471
(dp2472
g67
(dp2473
g94
g95
ssg76
g2462
sg69
(lp2474
S':'
asbag62
(g83
g64
NtRp2475
(dp2476
g67
(dp2477
sg76
g2462
sg69
(lp2478
g62
(g63
g64
NtRp2479
(dp2480
g67
(dp2481
g75
I3
ssg76
g2475
sg69
(lp2482
g195
asbasbasbag62
(g78
g64
NtRp2483
(dp2484
g67
(dp2485
sg76
g2227
sg69
(lp2486
g62
(g83
g64
NtRp2487
(dp2488
g67
(dp2489
g87
g88
ssg76
g2483
sg69
(lp2490
S'REMOTE_PORT'
p2491
asbag62
(g83
g64
NtRp2492
(dp2493
g67
(dp2494
g94
g95
ssg76
g2483
sg69
(lp2495
S':'
asbag62
(g83
g64
NtRp2496
(dp2497
g67
(dp2498
sg76
g2483
sg69
(lp2499
g62
(g63
g64
NtRp2500
(dp2501
g67
(dp2502
g75
I3
ssg76
g2496
sg69
(lp2503
g1106
asbasbasbag62
(g78
g64
NtRp2504
(dp2505
g67
(dp2506
sg76
g2227
sg69
(lp2507
g62
(g83
g64
NtRp2508
(dp2509
g67
(dp2510
g87
g88
ssg76
g2504
sg69
(lp2511
S'REQUEST_METHOD'
p2512
asbag62
(g83
g64
NtRp2513
(dp2514
g67
(dp2515
g94
g95
ssg76
g2504
sg69
(lp2516
S':'
asbag62
(g83
g64
NtRp2517
(dp2518
g67
(dp2519
sg76
g2504
sg69
(lp2520
g62
(g63
g64
NtRp2521
(dp2522
g67
(dp2523
g75
I3
ssg76
g2517
sg69
(lp2524
g1128
asbasbasbag62
(g78
g64
NtRp2525
(dp2526
g67
(dp2527
sg76
g2227
sg69
(lp2528
g62
(g83
g64
NtRp2529
(dp2530
g67
(dp2531
g87
g88
ssg76
g2525
sg69
(lp2532
S'SCRIPT_NAME'
p2533
asbag62
(g83
g64
NtRp2534
(dp2535
g67
(dp2536
g94
g95
ssg76
g2525
sg69
(lp2537
S':'
asbag62
(g83
g64
NtRp2538
(dp2539
g67
(dp2540
sg76
g2525
sg69
(lp2541
g62
(g63
g64
NtRp2542
(dp2543
g67
(dp2544
g75
I3
ssg76
g2538
sg69
(lp2545
S''
asbasbasbag62
(g78
g64
NtRp2546
(dp2547
g67
(dp2548
sg76
g2227
sg69
(lp2549
g62
(g83
g64
NtRp2550
(dp2551
g67
(dp2552
g87
g88
ssg76
g2546
sg69
(lp2553
S'SERVER_NAME'
p2554
asbag62
(g83
g64
NtRp2555
(dp2556
g67
(dp2557
g94
g95
ssg76
g2546
sg69
(lp2558
S':'
asbag62
(g83
g64
NtRp2559
(dp2560
g67
(dp2561
sg76
g2546
sg69
(lp2562
g62
(g63
g64
NtRp2563
(dp2564
g67
(dp2565
g75
I3
ssg76
g2559
sg69
(lp2566
g1171
asbasbasbag62
(g78
g64
NtRp2567
(dp2568
g67
(dp2569
sg76
g2227
sg69
(lp2570
g62
(g83
g64
NtRp2571
(dp2572
g67
(dp2573
g87
g88
ssg76
g2567
sg69
(lp2574
S'SERVER_PORT'
p2575
asbag62
(g83
g64
NtRp2576
(dp2577
g67
(dp2578
g94
g95
ssg76
g2567
sg69
(lp2579
S':'
asbag62
(g83
g64
NtRp2580
(dp2581
g67
(dp2582
sg76
g2567
sg69
(lp2583
g62
(g63
g64
NtRp2584
(dp2585
g67
(dp2586
g75
I3
ssg76
g2580
sg69
(lp2587
g1193
asbasbasbag62
(g78
g64
NtRp2588
(dp2589
g67
(dp2590
sg76
g2227
sg69
(lp2591
g62
(g83
g64
NtRp2592
(dp2593
g67
(dp2594
g87
g88
ssg76
g2588
sg69
(lp2595
S'SERVER_PROTOCOL'
p2596
asbag62
(g83
g64
NtRp2597
(dp2598
g67
(dp2599
g94
g95
ssg76
g2588
sg69
(lp2600
S':'
asbag62
(g83
g64
NtRp2601
(dp2602
g67
(dp2603
sg76
g2588
sg69
(lp2604
g62
(g63
g64
NtRp2605
(dp2606
g67
(dp2607
g75
I3
ssg76
g2601
sg69
(lp2608
g1215
asbasbasbag62
(g78
g64
NtRp2609
(dp2610
g67
(dp2611
sg76
g2227
sg69
(lp2612
g62
(g83
g64
NtRp2613
(dp2614
g67
(dp2615
g87
g88
ssg76
g2609
sg69
(lp2616
S'SERVER_SOFTWARE'
p2617
asbag62
(g83
g64
NtRp2618
(dp2619
g67
(dp2620
g94
g95
ssg76
g2609
sg69
(lp2621
S':'
asbag62
(g83
g64
NtRp2622
(dp2623
g67
(dp2624
sg76
g2609
sg69
(lp2625
g62
(g63
g64
NtRp2626
(dp2627
g67
(dp2628
g75
I3
ssg76
g2622
sg69
(lp2629
g1237
asbasbasbag62
(g78
g64
NtRp2630
(dp2631
g67
(dp2632
sg76
g2227
sg69
(lp2633
g62
(g83
g64
NtRp2634
(dp2635
g67
(dp2636
g87
g88
ssg76
g2630
sg69
(lp2637
S'wsgi.errors'
p2638
asbag62
(g83
g64
NtRp2639
(dp2640
g67
(dp2641
g94
g95
ssg76
g2630
sg69
(lp2642
S':'
asbag62
(g83
g64
NtRp2643
(dp2644
g67
(dp2645
sg76
g2630
sg69
(lp2646
g62
(g63
g64
NtRp2647
(dp2648
g67
(dp2649
g75
I3
ssg76
g2643
sg69
(lp2650
S"<open file '<stderr>', mode 'w' at 0x100281270>"
p2651
asbasbasbag62
(g78
g64
NtRp2652
(dp2653
g67
(dp2654
sg76
g2227
sg69
(lp2655
g62
(g83
g64
NtRp2656
(dp2657
g67
(dp2658
g87
g88
ssg76
g2652
sg69
(lp2659
S'wsgi.file_wrapper'
p2660
asbag62
(g83
g64
NtRp2661
(dp2662
g67
(dp2663
g94
g95
ssg76
g2652
sg69
(lp2664
S':'
asbag62
(g83
g64
NtRp2665
(dp2666
g67
(dp2667
sg76
g2652
sg69
(lp2668
g62
(g63
g64
NtRp2669
(dp2670
g67
(dp2671
g75
I3
ssg76
g2665
sg69
(lp2672
S'<class wsgiref.util.FileWrapper at 0x1016d8db8>'
p2673
asbasbasbag62
(g78
g64
NtRp2674
(dp2675
g67
(dp2676
sg76
g2227
sg69
(lp2677
g62
(g83
g64
NtRp2678
(dp2679
g67
(dp2680
g87
g88
ssg76
g2674
sg69
(lp2681
S'wsgi.input'
p2682
asbag62
(g83
g64
NtRp2683
(dp2684
g67
(dp2685
g94
g95
ssg76
g2674
sg69
(lp2686
S':'
asbag62
(g83
g64
NtRp2687
(dp2688
g67
(dp2689
sg76
g2674
sg69
(lp2690
g62
(g63
g64
NtRp2691
(dp2692
g67
(dp2693
g75
I3
ssg76
g2687
sg69
(lp2694
S'<cStringIO.StringO object at 0x108c89880>'
p2695
asbasbasbag62
(g78
g64
NtRp2696
(dp2697
g67
(dp2698
sg76
g2227
sg69
(lp2699
g62
(g83
g64
NtRp2700
(dp2701
g67
(dp2702
g87
g88
ssg76
g2696
sg69
(lp2703
S'wsgi.multiprocess'
p2704
asbag62
(g83
g64
NtRp2705
(dp2706
g67
(dp2707
g94
g95
ssg76
g2696
sg69
(lp2708
S':'
asbag62
(g83
g64
NtRp2709
(dp2710
g67
(dp2711
sg76
g2696
sg69
(lp2712
g62
(g63
g64
NtRp2713
(dp2714
g67
(dp2715
g75
I3
ssg76
g2709
sg69
(lp2716
g105
asbasbasbag62
(g78
g64
NtRp2717
(dp2718
g67
(dp2719
sg76
g2227
sg69
(lp2720
g62
(g83
g64
NtRp2721
(dp2722
g67
(dp2723
g87
g88
ssg76
g2717
sg69
(lp2724
S'wsgi.multithread'
p2725
asbag62
(g83
g64
NtRp2726
(dp2727
g67
(dp2728
g94
g95
ssg76
g2717
sg69
(lp2729
S':'
asbag62
(g83
g64
NtRp2730
(dp2731
g67
(dp2732
sg76
g2717
sg69
(lp2733
g62
(g63
g64
NtRp2734
(dp2735
g67
(dp2736
g75
I3
ssg76
g2730
sg69
(lp2737
g1477
asbasbasbag62
(g78
g64
NtRp2738
(dp2739
g67
(dp2740
sg76
g2227
sg69
(lp2741
g62
(g83
g64
NtRp2742
(dp2743
g67
(dp2744
g87
g88
ssg76
g2738
sg69
(lp2745
S'wsgi.run_once'
p2746
asbag62
(g83
g64
NtRp2747
(dp2748
g67
(dp2749
g94
g95
ssg76
g2738
sg69
(lp2750
S':'
asbag62
(g83
g64
NtRp2751
(dp2752
g67
(dp2753
sg76
g2738
sg69
(lp2754
g62
(g63
g64
NtRp2755
(dp2756
g67
(dp2757
g75
I3
ssg76
g2751
sg69
(lp2758
g105
asbasbasbag62
(g78
g64
NtRp2759
(dp2760
g67
(dp2761
sg76
g2227
sg69
(lp2762
g62
(g83
g64
NtRp2763
(dp2764
g67
(dp2765
g87
g88
ssg76
g2759
sg69
(lp2766
S'wsgi.url_scheme'
p2767
asbag62
(g83
g64
NtRp2768
(dp2769
g67
(dp2770
g94
g95
ssg76
g2759
sg69
(lp2771
S':'
asbag62
(g83
g64
NtRp2772
(dp2773
g67
(dp2774
sg76
g2759
sg69
(lp2775
g62
(g63
g64
NtRp2776
(dp2777
g67
(dp2778
g75
I3
ssg76
g2772
sg69
(lp2779
g1520
asbasbasbag62
(g78
g64
NtRp2780
(dp2781
g67
(dp2782
sg76
g2227
sg69
(lp2783
g62
(g83
g64
NtRp2784
(dp2785
g67
(dp2786
g87
g88
ssg76
g2780
sg69
(lp2787
S'wsgi.version'
p2788
asbag62
(g83
g64
NtRp2789
(dp2790
g67
(dp2791
g94
g95
ssg76
g2780
sg69
(lp2792
S':'
asbag62
(g83
g64
NtRp2793
(dp2794
g67
(dp2795
sg76
g2780
sg69
(lp2796
g62
(g63
g64
NtRp2797
(dp2798
g67
(dp2799
g75
I3
ssg76
g2793
sg69
(lp2800
S'1'
asbasbasbasbasbasbasbasbasbasbasbasbasbsS'frames'
p2801
(lp2802
(dp2803
S'file'
p2804
S'/Users/schultzc/Documents/[Buffer]Overflow/github/fried/src/gluon/restricted.py'
p2805
sS'dump'
p2806
(dp2807
S'environment'
p2808
S"{'A': <class 'gluon.html.A'>, 'Auth': <class 'gluon.tools.Auth'>, 'B': <class 'gluon.html.B'>, 'BEAUTIFY': <class 'gluon.html.BEAUTIFY'>, 'BODY': <class 'gluon.html.BODY'>, 'BR': <class 'gluon.html.BR'>, 'BUTTON': <class 'gluon.html.BUTTON'>, 'CAT': <class 'gluon.html.CAT'>, 'CENTER': <class 'gluon.html.CENTER'>, 'CLEANUP': <class 'gluon.validators.CLEANUP'>, ...}"
p2809
sS'ccode'
p2810
S'<code object <module> at 0x1081ad930, file "/Use...plications/fried/controllers/default.py", line 3>'
p2811
ssS'lnum'
p2812
I194
sS'lines'
p2813
(dp2814
I192
S'        else:'
p2815
sI193
S'            ccode = compile2(code,layer)'
p2816
sI194
S'        exec ccode in environment'
p2817
sI195
S'    except HTTP:'
p2818
sI196
S'        raise'
p2819
sI197
S'    except Exception, error:'
p2820
sI198
S'        # XXX Show exception in Wing IDE if running in debugger'
p2821
sI189
S'    try:'
p2822
sI190
S'        if type(code) == types.CodeType:'
p2823
sI191
S'            ccode = code'
p2824
ssS'call'
p2825
S"(code='# -*- coding: utf-8 -*-\\n### required - do no del... dict()\\n\\n\\nresponse._vars=response._caller(index)\\n', environment={'A': <class 'gluon.html.A'>, 'Auth': <class 'gluon.tools.Auth'>, 'B': <class 'gluon.html.B'>, 'BEAUTIFY': <class 'gluon.html.BEAUTIFY'>, 'BODY': <class 'gluon.html.BODY'>, 'BR': <class 'gluon.html.BR'>, 'BUTTON': <class 'gluon.html.BUTTON'>, 'CAT': <class 'gluon.html.CAT'>, 'CENTER': <class 'gluon.html.CENTER'>, 'CLEANUP': <class 'gluon.validators.CLEANUP'>, ...}, layer='/Users/schultzc/Documents/[Buffer]Overflow/githu...ied/src/applications/fried/controllers/default.py')"
p2826
sS'func'
p2827
S'restricted'
p2828
sa(dp2829
g2804
S'/Users/schultzc/Documents/[Buffer]Overflow/github/fried/src/applications/fried/controllers/default.py'
p2830
sg2806
(dp2831
sg2812
I21
sg2813
(dp2832
I10
S"    comet_send('localhost:8888', 'Someone has hit the site')"
p2833
sI11
S'    return dict(form=auth())'
p2834
sI12
S''
sI13
S'def clientdz():'
p2835
sI14
S"    text = request.post_vars['text']"
p2836
sI15
S'    return dict(test=text)'
p2837
sI16
S''
sI17
S'def error():'
p2838
sI18
S'    return dict()'
p2839
sI19
S''
ssg2825
S'()'
p2840
sg2827
S'<module>'
p2841
sa(dp2842
g2804
S'/Users/schultzc/Documents/[Buffer]Overflow/github/fried/src/gluon/globals.py'
p2843
sg2806
(dp2844
S'self'
p2845
S'undefined'
p2846
sS'f'
S'<function index>'
p2847
ssg2812
I149
sg2813
(dp2848
I144
S'        self.meta = Storage()      # used by web2py_ajax.html'
p2849
sI145
S'        self.menu = []             # used by the default view layout'
p2850
sI146
S'        self.files = []            # used by web2py_ajax.html'
p2851
sI147
S'        self.generic_patterns = [] # patterns to allow generic views'
p2852
sI148
S'        self._vars = None'
p2853
sI149
S'        self._caller = lambda f: f()'
p2854
sI150
S'        self._view_environment = None'
p2855
sI151
S'        self._custom_commit = None'
p2856
sI152
S'        self._custom_rollback = None'
p2857
sI153
S''
ssg2825
S'(f=<function index>)'
p2858
sg2827
S'<lambda>'
p2859
sa(dp2860
g2804
S'/Users/schultzc/Documents/[Buffer]Overflow/github/fried/src/applications/fried/controllers/default.py'
p2861
sg2806
(dp2862
S'global comet_send'
p2863
S'<function comet_send>'
p2864
ssg2812
I10
sg2813
(dp2865
I5
S'def user(): return dict(form=auth())'
p2866
sI6
S'def download(): return response.download(request,db)'
p2867
sI7
S'def call(): return service()'
p2868
sI8
S'### end requires'
p2869
sI9
S'def index():'
p2870
sI10
S"    comet_send('localhost:8888', 'Someone has hit the site')"
p2871
sI11
S'    return dict(form=auth())'
p2872
sI12
S''
sI13
S'def clientdz():'
p2873
sI14
S"    text = request.post_vars['text']"
p2874
ssg2825
S'()'
p2875
sg2827
S'index'
p2876
sa(dp2877
g2804
S'/Users/schultzc/Documents/[Buffer]Overflow/github/fried/src/gluon/contrib/comet_messaging.py'
p2878
sg2806
(dp2879
S'url'
p2880
S"'localhost:8888'"
p2881
sS'global urllib'
p2882
S"<module 'urllib' from '/Library/Frameworks/Python.framework/Versions/2.7/lib/python2.7/urllib.pyc'>"
p2883
sS'urllib.urlopen'
p2884
S'<function urlopen>'
p2885
sS'params'
p2886
S"'message=Someone+has+hit+the+site&group=default&signature='"
p2887
sS'f'
g2846
ssg2812
I89
sg2813
(dp2888
I84
S'tokens = {}'
p2889
sI85
S''
sI86
S"def comet_send(url,message,hmac_key=None,group='default'):"
p2890
sI87
S"    sig = hmac_key and hmac.new(hmac_key,message).hexdigest() or ''"
p2891
sI88
S"    params = urllib.urlencode({'message': message, 'signature': sig, 'group':group})"
p2892
sI89
S'    f = urllib.urlopen(url, params)'
p2893
sI90
S'    data= f.read()'
p2894
sI91
S'    f.close()'
p2895
sI92
S'    return data'
p2896
sI93
S''
ssg2825
S"(url='localhost:8888', message='Someone has hit the site', hmac_key=None, group='default')"
p2897
sg2827
S'comet_send'
p2898
sa(dp2899
g2804
S'/Library/Frameworks/Python.framework/Versions/2.7/lib/python2.7/urllib.py'
p2900
sg2806
(dp2901
S'url'
p2902
S"'localhost:8888'"
p2903
sS'opener'
p2904
S'<urllib.FancyURLopener instance>'
p2905
sS'data'
p2906
S"'message=Someone+has+hit+the+site&group=default&signature='"
p2907
sS'opener.open'
p2908
S'<bound method FancyURLopener.open of <urllib.FancyURLopener instance>>'
p2909
ssg2812
I86
sg2813
(dp2910
I81
S'    else:'
p2911
sI82
S'        opener = _urlopener'
p2912
sI83
S'    if data is None:'
p2913
sI84
S'        return opener.open(url)'
p2914
sI85
S'    else:'
p2915
sI86
S'        return opener.open(url, data)'
p2916
sI87
S'def urlretrieve(url, filename=None, reporthook=None, data=None):'
p2917
sI88
S'    global _urlopener'
p2918
sI89
S'    if not _urlopener:'
p2919
sI90
S'        _urlopener = FancyURLopener()'
p2920
ssg2825
S"(url='localhost:8888', data='message=Someone+has+hit+the+site&group=default&signature=', proxies=None)"
p2921
sg2827
S'urlopen'
p2922
sa(dp2923
g2804
S'/Library/Frameworks/Python.framework/Versions/2.7/lib/python2.7/urllib.py'
p2924
sg2806
(dp2925
S'self'
p2926
S'<urllib.FancyURLopener instance>'
p2927
sS'data'
p2928
S"'message=Someone+has+hit+the+site&group=default&signature='"
p2929
sS'fullurl'
p2930
S"'localhost:8888'"
p2931
sS'self.open_unknown'
p2932
S'<bound method FancyURLopener.open_unknown of <urllib.FancyURLopener instance>>'
p2933
ssg2812
I202
sg2813
(dp2934
I197
S"        name = name.replace('-', '_')"
p2935
sI198
S'        if not hasattr(self, name):'
p2936
sI199
S'            if proxy:'
p2937
sI200
S'                return self.open_unknown_proxy(proxy, fullurl, data)'
p2938
sI201
S'            else:'
p2939
sI202
S'                return self.open_unknown(fullurl, data)'
p2940
sI203
S'        try:'
p2941
sI204
S'            if data is None:'
p2942
sI205
S'                return getattr(self, name)(url)'
p2943
sI206
S'            else:'
p2944
ssg2825
S"(self=<urllib.FancyURLopener instance>, fullurl='localhost:8888', data='message=Someone+has+hit+the+site&group=default&signature=')"
p2945
sg2827
S'open'
p2946
sa(dp2947
g2804
S'/Library/Frameworks/Python.framework/Versions/2.7/lib/python2.7/urllib.py'
p2948
sg2806
(dp2949
S'builtinIOError'
p2950
S"<type 'exceptions.IOError'>"
p2951
sS'type'
p2952
S"'localhost'"
p2953
ssg2812
I214
sg2813
(dp2954
I209
S"            raise IOError, ('socket error', msg), sys.exc_info()[2]"
p2955
sI210
S''
sI211
S'    def open_unknown(self, fullurl, data=None):'
p2956
sI212
S'        """Overridable interface to open unknown URL type."""'
p2957
sI213
S'        type, url = splittype(fullurl)'
p2958
sI214
S"        raise IOError, ('url error', 'unknown url type', type)"
p2959
sI215
S''
sI216
S'    def open_unknown_proxy(self, proxy, fullurl, data=None):'
p2960
sI217
S'        """Overridable interface to open unknown URL type."""'
p2961
sI218
S'        type, url = splittype(fullurl)'
p2962
ssg2825
S"(self=<urllib.FancyURLopener instance>, fullurl='localhost:8888', data='message=Someone+has+hit+the+site&group=default&signature=')"
p2963
sg2827
S'open_unknown'
p2964
sasS'pyver'
p2965
S'Python 2.7.1: /Library/Frameworks/Python.framework/Versions/2.7/Resources/Python.app/Contents/MacOS/Python'
p2966
sS'session'
p2967
g62
(g63
g64
NtRp2968
(dp2969
g67
(dp2970
sg69
(lp2971
g62
(g71
g64
NtRp2972
(dp2973
g67
(dp2974
g75
I5
ssg76
Nsg69
(lp2975
sbasbsS'etype'
p2976
S"<type 'exceptions.IOError'>"
p2977
sS'date'
p2978
S'Tue Nov 15 22:19:01 2011'
p2979
sS'response'
p2980
g62
(g63
g64
NtRp2981
(dp2982
g67
(dp2983
sg69
(lp2984
g62
(g71
g64
NtRp2985
(dp2986
g67
(dp2987
g75
I5
ssg76
Nsg69
(lp2988
g62
(g78
g64
NtRp2989
(dp2990
g67
(dp2991
sg76
g2985
sg69
(lp2992
g62
(g83
g64
NtRp2993
(dp2994
g67
(dp2995
g87
g88
ssg76
g2989
sg69
(lp2996
g160
asbag62
(g83
g64
NtRp2997
(dp2998
g67
(dp2999
g94
g95
ssg76
g2989
sg69
(lp3000
S':'
asbag62
(g83
g64
NtRp3001
(dp3002
g67
(dp3003
sg76
g2989
sg69
(lp3004
g62
(g63
g64
NtRp3005
(dp3006
g67
(dp3007
g75
I5
ssg76
g3001
sg69
(lp3008
S'<cStringIO.StringO object at 0x1034488b8>'
p3009
asbasbasbag62
(g78
g64
NtRp3010
(dp3011
g67
(dp3012
sg76
g2985
sg69
(lp3013
g62
(g83
g64
NtRp3014
(dp3015
g67
(dp3016
g87
g88
ssg76
g3010
sg69
(lp3017
g226
asbag62
(g83
g64
NtRp3018
(dp3019
g67
(dp3020
g94
g95
ssg76
g3010
sg69
(lp3021
S':'
asbag62
(g83
g64
NtRp3022
(dp3023
g67
(dp3024
sg76
g3010
sg69
(lp3025
g62
(g63
g64
NtRp3026
(dp3027
g67
(dp3028
g75
I5
ssg76
g3022
sg69
(lp3029
g62
(g71
g64
NtRp3030
(dp3031
g67
(dp3032
g75
I4
ssg76
Nsg69
(lp3033
g62
(g78
g64
NtRp3034
(dp3035
g67
(dp3036
sg76
g3030
sg69
(lp3037
g62
(g83
g64
NtRp3038
(dp3039
g67
(dp3040
g87
g88
ssg76
g3034
sg69
(lp3041
S'session_id_fried'
p3042
asbag62
(g83
g64
NtRp3043
(dp3044
g67
(dp3045
g94
g95
ssg76
g3034
sg69
(lp3046
S':'
asbag62
(g83
g64
NtRp3047
(dp3048
g67
(dp3049
sg76
g3034
sg69
(lp3050
g62
(g63
g64
NtRp3051
(dp3052
g67
(dp3053
g75
I4
ssg76
g3047
sg69
(lp3054
g62
(g71
g64
NtRp3055
(dp3056
g67
(dp3057
g75
I3
ssg76
Nsg69
(lp3058
g62
(g78
g64
NtRp3059
(dp3060
g67
(dp3061
sg76
g3055
sg69
(lp3062
g62
(g83
g64
NtRp3063
(dp3064
g67
(dp3065
g87
g88
ssg76
g3059
sg69
(lp3066
g276
asbag62
(g83
g64
NtRp3067
(dp3068
g67
(dp3069
g94
g95
ssg76
g3059
sg69
(lp3070
S':'
asbag62
(g83
g64
NtRp3071
(dp3072
g67
(dp3073
sg76
g3059
sg69
(lp3074
g62
(g63
g64
NtRp3075
(dp3076
g67
(dp3077
g75
I3
ssg76
g3071
sg69
(lp3078
S''
asbasbasbag62
(g78
g64
NtRp3079
(dp3080
g67
(dp3081
sg76
g3055
sg69
(lp3082
g62
(g83
g64
NtRp3083
(dp3084
g67
(dp3085
g87
g88
ssg76
g3079
sg69
(lp3086
g297
asbag62
(g83
g64
NtRp3087
(dp3088
g67
(dp3089
g94
g95
ssg76
g3079
sg69
(lp3090
S':'
asbag62
(g83
g64
NtRp3091
(dp3092
g67
(dp3093
sg76
g3079
sg69
(lp3094
g62
(g63
g64
NtRp3095
(dp3096
g67
(dp3097
g75
I3
ssg76
g3091
sg69
(lp3098
S''
asbasbasbag62
(g78
g64
NtRp3099
(dp3100
g67
(dp3101
sg76
g3055
sg69
(lp3102
g62
(g83
g64
NtRp3103
(dp3104
g67
(dp3105
g87
g88
ssg76
g3099
sg69
(lp3106
g318
asbag62
(g83
g64
NtRp3107
(dp3108
g67
(dp3109
g94
g95
ssg76
g3099
sg69
(lp3110
S':'
asbag62
(g83
g64
NtRp3111
(dp3112
g67
(dp3113
sg76
g3099
sg69
(lp3114
g62
(g63
g64
NtRp3115
(dp3116
g67
(dp3117
g75
I3
ssg76
g3111
sg69
(lp3118
S''
asbasbasbag62
(g78
g64
NtRp3119
(dp3120
g67
(dp3121
sg76
g3055
sg69
(lp3122
g62
(g83
g64
NtRp3123
(dp3124
g67
(dp3125
g87
g88
ssg76
g3119
sg69
(lp3126
g339
asbag62
(g83
g64
NtRp3127
(dp3128
g67
(dp3129
g94
g95
ssg76
g3119
sg69
(lp3130
S':'
asbag62
(g83
g64
NtRp3131
(dp3132
g67
(dp3133
sg76
g3119
sg69
(lp3134
g62
(g63
g64
NtRp3135
(dp3136
g67
(dp3137
g75
I3
ssg76
g3131
sg69
(lp3138
S''
asbasbasbag62
(g78
g64
NtRp3139
(dp3140
g67
(dp3141
sg76
g3055
sg69
(lp3142
g62
(g83
g64
NtRp3143
(dp3144
g67
(dp3145
g87
g88
ssg76
g3139
sg69
(lp3146
g360
asbag62
(g83
g64
NtRp3147
(dp3148
g67
(dp3149
g94
g95
ssg76
g3139
sg69
(lp3150
S':'
asbag62
(g83
g64
NtRp3151
(dp3152
g67
(dp3153
sg76
g3139
sg69
(lp3154
g62
(g63
g64
NtRp3155
(dp3156
g67
(dp3157
g75
I3
ssg76
g3151
sg69
(lp3158
S''
asbasbasbag62
(g78
g64
NtRp3159
(dp3160
g67
(dp3161
sg76
g3055
sg69
(lp3162
g62
(g83
g64
NtRp3163
(dp3164
g67
(dp3165
g87
g88
ssg76
g3159
sg69
(lp3166
g381
asbag62
(g83
g64
NtRp3167
(dp3168
g67
(dp3169
g94
g95
ssg76
g3159
sg69
(lp3170
S':'
asbag62
(g83
g64
NtRp3171
(dp3172
g67
(dp3173
sg76
g3159
sg69
(lp3174
g62
(g63
g64
NtRp3175
(dp3176
g67
(dp3177
g75
I3
ssg76
g3171
sg69
(lp3178
S'/'
asbasbasbag62
(g78
g64
NtRp3179
(dp3180
g67
(dp3181
sg76
g3055
sg69
(lp3182
g62
(g83
g64
NtRp3183
(dp3184
g67
(dp3185
g87
g88
ssg76
g3179
sg69
(lp3186
g402
asbag62
(g83
g64
NtRp3187
(dp3188
g67
(dp3189
g94
g95
ssg76
g3179
sg69
(lp3190
S':'
asbag62
(g83
g64
NtRp3191
(dp3192
g67
(dp3193
sg76
g3179
sg69
(lp3194
g62
(g63
g64
NtRp3195
(dp3196
g67
(dp3197
g75
I3
ssg76
g3191
sg69
(lp3198
S''
asbasbasbag62
(g78
g64
NtRp3199
(dp3200
g67
(dp3201
sg76
g3055
sg69
(lp3202
g62
(g83
g64
NtRp3203
(dp3204
g67
(dp3205
g87
g88
ssg76
g3199
sg69
(lp3206
g423
asbag62
(g83
g64
NtRp3207
(dp3208
g67
(dp3209
g94
g95
ssg76
g3199
sg69
(lp3210
S':'
asbag62
(g83
g64
NtRp3211
(dp3212
g67
(dp3213
sg76
g3199
sg69
(lp3214
g62
(g63
g64
NtRp3215
(dp3216
g67
(dp3217
g75
I3
ssg76
g3211
sg69
(lp3218
S''
asbasbasbasbasbasbasbasbasbasbasbag62
(g78
g64
NtRp3219
(dp3220
g67
(dp3221
sg76
g2985
sg69
(lp3222
g62
(g83
g64
NtRp3223
(dp3224
g67
(dp3225
g87
g88
ssg76
g3219
sg69
(lp3226
S'files'
p3227
asbag62
(g83
g64
NtRp3228
(dp3229
g67
(dp3230
g94
g95
ssg76
g3219
sg69
(lp3231
S':'
asbag62
(g83
g64
NtRp3232
(dp3233
g67
(dp3234
sg76
g3219
sg69
(lp3235
g62
(g63
g64
NtRp3236
(dp3237
g67
(dp3238
g75
I5
ssg76
g3232
sg69
(lp3239
g62
(g71
g64
NtRp3240
(dp3241
g67
(dp3242
g75
I4
ssg76
Nsg69
(lp3243
sbasbasbasbag62
(g78
g64
NtRp3244
(dp3245
g67
(dp3246
sg76
g2985
sg69
(lp3247
g62
(g83
g64
NtRp3248
(dp3249
g67
(dp3250
g87
g88
ssg76
g3244
sg69
(lp3251
S'flash'
p3252
asbag62
(g83
g64
NtRp3253
(dp3254
g67
(dp3255
g94
g95
ssg76
g3244
sg69
(lp3256
S':'
asbag62
(g83
g64
NtRp3257
(dp3258
g67
(dp3259
sg76
g3244
sg69
(lp3260
g62
(g63
g64
NtRp3261
(dp3262
g67
(dp3263
g75
I5
ssg76
g3257
sg69
(lp3264
S''
asbasbasbag62
(g78
g64
NtRp3265
(dp3266
g67
(dp3267
sg76
g2985
sg69
(lp3268
g62
(g83
g64
NtRp3269
(dp3270
g67
(dp3271
g87
g88
ssg76
g3265
sg69
(lp3272
S'generic_patterns'
p3273
asbag62
(g83
g64
NtRp3274
(dp3275
g67
(dp3276
g94
g95
ssg76
g3265
sg69
(lp3277
S':'
asbag62
(g83
g64
NtRp3278
(dp3279
g67
(dp3280
sg76
g3265
sg69
(lp3281
g62
(g63
g64
NtRp3282
(dp3283
g67
(dp3284
g75
I5
ssg76
g3278
sg69
(lp3285
g62
(g71
g64
NtRp3286
(dp3287
g67
(dp3288
g75
I4
ssg76
Nsg69
(lp3289
g62
(g78
g64
NtRp3290
(dp3291
g67
(dp3292
sg76
g3286
sg69
(lp3293
g62
(g83
g64
NtRp3294
(dp3295
g67
(dp3296
sg76
g3290
sg69
(lp3297
g62
(g63
g64
NtRp3298
(dp3299
g67
(dp3300
g75
I4
ssg76
g3294
sg69
(lp3301
S'*'
asbasbasbasbasbasbasbag62
(g78
g64
NtRp3302
(dp3303
g67
(dp3304
sg76
g2985
sg69
(lp3305
g62
(g83
g64
NtRp3306
(dp3307
g67
(dp3308
g87
g88
ssg76
g3302
sg69
(lp3309
S'headers'
p3310
asbag62
(g83
g64
NtRp3311
(dp3312
g67
(dp3313
g94
g95
ssg76
g3302
sg69
(lp3314
S':'
asbag62
(g83
g64
NtRp3315
(dp3316
g67
(dp3317
sg76
g3302
sg69
(lp3318
g62
(g63
g64
NtRp3319
(dp3320
g67
(dp3321
g75
I5
ssg76
g3315
sg69
(lp3322
g62
(g71
g64
NtRp3323
(dp3324
g67
(dp3325
g75
I4
ssg76
Nsg69
(lp3326
g62
(g78
g64
NtRp3327
(dp3328
g67
(dp3329
sg76
g3323
sg69
(lp3330
g62
(g83
g64
NtRp3331
(dp3332
g67
(dp3333
g87
g88
ssg76
g3327
sg69
(lp3334
S'Cache-Control'
p3335
asbag62
(g83
g64
NtRp3336
(dp3337
g67
(dp3338
g94
g95
ssg76
g3327
sg69
(lp3339
S':'
asbag62
(g83
g64
NtRp3340
(dp3341
g67
(dp3342
sg76
g3327
sg69
(lp3343
g62
(g63
g64
NtRp3344
(dp3345
g67
(dp3346
g75
I4
ssg76
g3340
sg69
(lp3347
S'no-store, no-cache, must-revalidate, post-check=0, pre-check=0'
p3348
asbasbasbag62
(g78
g64
NtRp3349
(dp3350
g67
(dp3351
sg76
g3323
sg69
(lp3352
g62
(g83
g64
NtRp3353
(dp3354
g67
(dp3355
g87
g88
ssg76
g3349
sg69
(lp3356
S'Content-Type'
p3357
asbag62
(g83
g64
NtRp3358
(dp3359
g67
(dp3360
g94
g95
ssg76
g3349
sg69
(lp3361
S':'
asbag62
(g83
g64
NtRp3362
(dp3363
g67
(dp3364
sg76
g3349
sg69
(lp3365
g62
(g63
g64
NtRp3366
(dp3367
g67
(dp3368
g75
I4
ssg76
g3362
sg69
(lp3369
S'text/html; charset=utf-8'
p3370
asbasbasbag62
(g78
g64
NtRp3371
(dp3372
g67
(dp3373
sg76
g3323
sg69
(lp3374
g62
(g83
g64
NtRp3375
(dp3376
g67
(dp3377
g87
g88
ssg76
g3371
sg69
(lp3378
S'Expires'
p3379
asbag62
(g83
g64
NtRp3380
(dp3381
g67
(dp3382
g94
g95
ssg76
g3371
sg69
(lp3383
S':'
asbag62
(g83
g64
NtRp3384
(dp3385
g67
(dp3386
sg76
g3371
sg69
(lp3387
g62
(g63
g64
NtRp3388
(dp3389
g67
(dp3390
g75
I4
ssg76
g3384
sg69
(lp3391
S'Wed, 16 Nov 2011 05:19:01 GMT'
p3392
asbasbasbag62
(g78
g64
NtRp3393
(dp3394
g67
(dp3395
sg76
g3323
sg69
(lp3396
g62
(g83
g64
NtRp3397
(dp3398
g67
(dp3399
g87
g88
ssg76
g3393
sg69
(lp3400
S'Pragma'
p3401
asbag62
(g83
g64
NtRp3402
(dp3403
g67
(dp3404
g94
g95
ssg76
g3393
sg69
(lp3405
S':'
asbag62
(g83
g64
NtRp3406
(dp3407
g67
(dp3408
sg76
g3393
sg69
(lp3409
g62
(g63
g64
NtRp3410
(dp3411
g67
(dp3412
g75
I4
ssg76
g3406
sg69
(lp3413
S'no-cache'
p3414
asbasbasbag62
(g78
g64
NtRp3415
(dp3416
g67
(dp3417
sg76
g3323
sg69
(lp3418
g62
(g83
g64
NtRp3419
(dp3420
g67
(dp3421
g87
g88
ssg76
g3415
sg69
(lp3422
S'X-Powered-By'
p3423
asbag62
(g83
g64
NtRp3424
(dp3425
g67
(dp3426
g94
g95
ssg76
g3415
sg69
(lp3427
S':'
asbag62
(g83
g64
NtRp3428
(dp3429
g67
(dp3430
sg76
g3415
sg69
(lp3431
g62
(g63
g64
NtRp3432
(dp3433
g67
(dp3434
g75
I4
ssg76
g3428
sg69
(lp3435
S'web2py'
p3436
asbasbasbasbasbasbasbag62
(g78
g64
NtRp3437
(dp3438
g67
(dp3439
sg76
g2985
sg69
(lp3440
g62
(g83
g64
NtRp3441
(dp3442
g67
(dp3443
g87
g88
ssg76
g3437
sg69
(lp3444
S'menu'
p3445
asbag62
(g83
g64
NtRp3446
(dp3447
g67
(dp3448
g94
g95
ssg76
g3437
sg69
(lp3449
S':'
asbag62
(g83
g64
NtRp3450
(dp3451
g67
(dp3452
sg76
g3437
sg69
(lp3453
g62
(g63
g64
NtRp3454
(dp3455
g67
(dp3456
g75
I5
ssg76
g3450
sg69
(lp3457
g62
(g71
g64
NtRp3458
(dp3459
g67
(dp3460
g75
I4
ssg76
Nsg69
(lp3461
g62
(g78
g64
NtRp3462
(dp3463
g67
(dp3464
sg76
g3458
sg69
(lp3465
g62
(g83
g64
NtRp3466
(dp3467
g67
(dp3468
sg76
g3462
sg69
(lp3469
g62
(g63
g64
NtRp3470
(dp3471
g67
(dp3472
g75
I4
ssg76
g3466
sg69
(lp3473
g62
(g71
g64
NtRp3474
(dp3475
g67
(dp3476
g75
I3
ssg76
Nsg69
(lp3477
g62
(g78
g64
NtRp3478
(dp3479
g67
(dp3480
sg76
g3474
sg69
(lp3481
g62
(g83
g64
NtRp3482
(dp3483
g67
(dp3484
sg76
g3478
sg69
(lp3485
g62
(g63
g64
NtRp3486
(dp3487
g67
(dp3488
g75
I3
ssg76
g3482
sg69
(lp3489
cgluon.languages
lazyT_unpickle
p3490
(S't\x05\x00\x00\x00Index'
tRp3491
asbasbasbag62
(g78
g64
NtRp3492
(dp3493
g67
(dp3494
sg76
g3474
sg69
(lp3495
g62
(g83
g64
NtRp3496
(dp3497
g67
(dp3498
sg76
g3492
sg69
(lp3499
g62
(g63
g64
NtRp3500
(dp3501
g67
(dp3502
g75
I3
ssg76
g3496
sg69
(lp3503
g1477
asbasbasbag62
(g78
g64
NtRp3504
(dp3505
g67
(dp3506
sg76
g3474
sg69
(lp3507
g62
(g83
g64
NtRp3508
(dp3509
g67
(dp3510
sg76
g3504
sg69
(lp3511
g62
(g63
g64
NtRp3512
(dp3513
g67
(dp3514
g75
I3
ssg76
g3508
sg69
(lp3515
S'/fried/default/index'
p3516
asbasbasbag62
(g78
g64
NtRp3517
(dp3518
g67
(dp3519
sg76
g3474
sg69
(lp3520
g62
(g83
g64
NtRp3521
(dp3522
g67
(dp3523
sg76
g3517
sg69
(lp3524
g62
(g63
g64
NtRp3525
(dp3526
g67
(dp3527
g75
I3
ssg76
g3521
sg69
(lp3528
g62
(g71
g64
NtRp3529
(dp3530
g67
(dp3531
g75
I2
ssg76
Nsg69
(lp3532
sbasbasbasbasbasbasbasbasbasbasbasbag62
(g78
g64
NtRp3533
(dp3534
g67
(dp3535
sg76
g2985
sg69
(lp3536
g62
(g83
g64
NtRp3537
(dp3538
g67
(dp3539
g87
g88
ssg76
g3533
sg69
(lp3540
S'meta'
p3541
asbag62
(g83
g64
NtRp3542
(dp3543
g67
(dp3544
g94
g95
ssg76
g3533
sg69
(lp3545
S':'
asbag62
(g83
g64
NtRp3546
(dp3547
g67
(dp3548
sg76
g3533
sg69
(lp3549
g62
(g63
g64
NtRp3550
(dp3551
g67
(dp3552
g75
I5
ssg76
g3546
sg69
(lp3553
g62
(g71
g64
NtRp3554
(dp3555
g67
(dp3556
g75
I4
ssg76
Nsg69
(lp3557
g62
(g78
g64
NtRp3558
(dp3559
g67
(dp3560
sg76
g3554
sg69
(lp3561
g62
(g83
g64
NtRp3562
(dp3563
g67
(dp3564
g87
g88
ssg76
g3558
sg69
(lp3565
S'author'
p3566
asbag62
(g83
g64
NtRp3567
(dp3568
g67
(dp3569
g94
g95
ssg76
g3558
sg69
(lp3570
S':'
asbag62
(g83
g64
NtRp3571
(dp3572
g67
(dp3573
sg76
g3558
sg69
(lp3574
g62
(g63
g64
NtRp3575
(dp3576
g67
(dp3577
g75
I4
ssg76
g3571
sg69
(lp3578
S'f47h3r <chaschul@uat.edu>'
p3579
asbasbasbag62
(g78
g64
NtRp3580
(dp3581
g67
(dp3582
sg76
g3554
sg69
(lp3583
g62
(g83
g64
NtRp3584
(dp3585
g67
(dp3586
g87
g88
ssg76
g3580
sg69
(lp3587
S'description'
p3588
asbag62
(g83
g64
NtRp3589
(dp3590
g67
(dp3591
g94
g95
ssg76
g3580
sg69
(lp3592
S':'
asbag62
(g83
g64
NtRp3593
(dp3594
g67
(dp3595
sg76
g3580
sg69
(lp3596
g62
(g63
g64
NtRp3597
(dp3598
g67
(dp3599
g75
I4
ssg76
g3593
sg69
(lp3600
S''
asbasbasbag62
(g78
g64
NtRp3601
(dp3602
g67
(dp3603
sg76
g3554
sg69
(lp3604
g62
(g83
g64
NtRp3605
(dp3606
g67
(dp3607
g87
g88
ssg76
g3601
sg69
(lp3608
S'keywords'
p3609
asbag62
(g83
g64
NtRp3610
(dp3611
g67
(dp3612
g94
g95
ssg76
g3601
sg69
(lp3613
S':'
asbag62
(g83
g64
NtRp3614
(dp3615
g67
(dp3616
sg76
g3601
sg69
(lp3617
g62
(g63
g64
NtRp3618
(dp3619
g67
(dp3620
g75
I4
ssg76
g3614
sg69
(lp3621
S''
asbasbasbasbasbasbasbag62
(g78
g64
NtRp3622
(dp3623
g67
(dp3624
sg76
g2985
sg69
(lp3625
g62
(g83
g64
NtRp3626
(dp3627
g67
(dp3628
g87
g88
ssg76
g3622
sg69
(lp3629
S'postprocessing'
p3630
asbag62
(g83
g64
NtRp3631
(dp3632
g67
(dp3633
g94
g95
ssg76
g3622
sg69
(lp3634
S':'
asbag62
(g83
g64
NtRp3635
(dp3636
g67
(dp3637
sg76
g3622
sg69
(lp3638
g62
(g63
g64
NtRp3639
(dp3640
g67
(dp3641
g75
I5
ssg76
g3635
sg69
(lp3642
g62
(g71
g64
NtRp3643
(dp3644
g67
(dp3645
g75
I4
ssg76
Nsg69
(lp3646
sbasbasbasbag62
(g78
g64
NtRp3647
(dp3648
g67
(dp3649
sg76
g2985
sg69
(lp3650
g62
(g83
g64
NtRp3651
(dp3652
g67
(dp3653
g87
g88
ssg76
g3647
sg69
(lp3654
S'session_file'
p3655
asbag62
(g83
g64
NtRp3656
(dp3657
g67
(dp3658
g94
g95
ssg76
g3647
sg69
(lp3659
S':'
asbag62
(g83
g64
NtRp3660
(dp3661
g67
(dp3662
sg76
g3647
sg69
(lp3663
g62
(g63
g64
NtRp3664
(dp3665
g67
(dp3666
g75
I5
ssg76
g3660
sg69
(lp3667
S"<open file '/Users/schultzc/Documents/[Buffer]Overflow/github/fried/src/applications/fried/sessions/127.0.0.1-fe56a172-a2db-4eda-9c6e-9ca46f2f1310', mode 'rb+' at 0x101021ae0>"
p3668
asbasbasbag62
(g78
g64
NtRp3669
(dp3670
g67
(dp3671
sg76
g2985
sg69
(lp3672
g62
(g83
g64
NtRp3673
(dp3674
g67
(dp3675
g87
g88
ssg76
g3669
sg69
(lp3676
S'session_filename'
p3677
asbag62
(g83
g64
NtRp3678
(dp3679
g67
(dp3680
g94
g95
ssg76
g3669
sg69
(lp3681
S':'
asbag62
(g83
g64
NtRp3682
(dp3683
g67
(dp3684
sg76
g3669
sg69
(lp3685
g62
(g63
g64
NtRp3686
(dp3687
g67
(dp3688
g75
I5
ssg76
g3682
sg69
(lp3689
S'/Users/schultzc/Documents/[Buffer]Overflow/github/fried/src/applications/fried/sessions/127.0.0.1-fe56a172-a2db-4eda-9c6e-9ca46f2f1310'
p3690
asbasbasbag62
(g78
g64
NtRp3691
(dp3692
g67
(dp3693
sg76
g2985
sg69
(lp3694
g62
(g83
g64
NtRp3695
(dp3696
g67
(dp3697
g87
g88
ssg76
g3691
sg69
(lp3698
S'session_id'
p3699
asbag62
(g83
g64
NtRp3700
(dp3701
g67
(dp3702
g94
g95
ssg76
g3691
sg69
(lp3703
S':'
asbag62
(g83
g64
NtRp3704
(dp3705
g67
(dp3706
sg76
g3691
sg69
(lp3707
g62
(g63
g64
NtRp3708
(dp3709
g67
(dp3710
g75
I5
ssg76
g3704
sg69
(lp3711
S'127.0.0.1-fe56a172-a2db-4eda-9c6e-9ca46f2f1310'
p3712
asbasbasbag62
(g78
g64
NtRp3713
(dp3714
g67
(dp3715
sg76
g2985
sg69
(lp3716
g62
(g83
g64
NtRp3717
(dp3718
g67
(dp3719
g87
g88
ssg76
g3713
sg69
(lp3720
S'session_id_name'
p3721
asbag62
(g83
g64
NtRp3722
(dp3723
g67
(dp3724
g94
g95
ssg76
g3713
sg69
(lp3725
S':'
asbag62
(g83
g64
NtRp3726
(dp3727
g67
(dp3728
sg76
g3713
sg69
(lp3729
g62
(g63
g64
NtRp3730
(dp3731
g67
(dp3732
g75
I5
ssg76
g3726
sg69
(lp3733
g3042
asbasbasbag62
(g78
g64
NtRp3734
(dp3735
g67
(dp3736
sg76
g2985
sg69
(lp3737
g62
(g83
g64
NtRp3738
(dp3739
g67
(dp3740
g87
g88
ssg76
g3734
sg69
(lp3741
S'session_locked'
p3742
asbag62
(g83
g64
NtRp3743
(dp3744
g67
(dp3745
g94
g95
ssg76
g3734
sg69
(lp3746
S':'
asbag62
(g83
g64
NtRp3747
(dp3748
g67
(dp3749
sg76
g3734
sg69
(lp3750
g62
(g63
g64
NtRp3751
(dp3752
g67
(dp3753
g75
I5
ssg76
g3747
sg69
(lp3754
g1477
asbasbasbag62
(g78
g64
NtRp3755
(dp3756
g67
(dp3757
sg76
g2985
sg69
(lp3758
g62
(g83
g64
NtRp3759
(dp3760
g67
(dp3761
g87
g88
ssg76
g3755
sg69
(lp3762
S'session_new'
p3763
asbag62
(g83
g64
NtRp3764
(dp3765
g67
(dp3766
g94
g95
ssg76
g3755
sg69
(lp3767
S':'
asbag62
(g83
g64
NtRp3768
(dp3769
g67
(dp3770
sg76
g3755
sg69
(lp3771
g62
(g63
g64
NtRp3772
(dp3773
g67
(dp3774
g75
I5
ssg76
g3768
sg69
(lp3775
g105
asbasbasbag62
(g78
g64
NtRp3776
(dp3777
g67
(dp3778
sg76
g2985
sg69
(lp3779
g62
(g83
g64
NtRp3780
(dp3781
g67
(dp3782
g87
g88
ssg76
g3776
sg69
(lp3783
S'status'
p3784
asbag62
(g83
g64
NtRp3785
(dp3786
g67
(dp3787
g94
g95
ssg76
g3776
sg69
(lp3788
S':'
asbag62
(g83
g64
NtRp3789
(dp3790
g67
(dp3791
sg76
g3776
sg69
(lp3792
g62
(g63
g64
NtRp3793
(dp3794
g67
(dp3795
g75
I5
ssg76
g3789
sg69
(lp3796
S'200'
p3797
asbasbasbag62
(g78
g64
NtRp3798
(dp3799
g67
(dp3800
sg76
g2985
sg69
(lp3801
g62
(g83
g64
NtRp3802
(dp3803
g67
(dp3804
g87
g88
ssg76
g3798
sg69
(lp3805
S'subtitle'
p3806
asbag62
(g83
g64
NtRp3807
(dp3808
g67
(dp3809
g94
g95
ssg76
g3798
sg69
(lp3810
S':'
asbag62
(g83
g64
NtRp3811
(dp3812
g67
(dp3813
sg76
g3798
sg69
(lp3814
g62
(g63
g64
NtRp3815
(dp3816
g67
(dp3817
g75
I5
ssg76
g3811
sg69
(lp3818
S'powered by yourm0m'
p3819
asbasbasbag62
(g78
g64
NtRp3820
(dp3821
g67
(dp3822
sg76
g2985
sg69
(lp3823
g62
(g83
g64
NtRp3824
(dp3825
g67
(dp3826
g87
g88
ssg76
g3820
sg69
(lp3827
S'title'
p3828
asbag62
(g83
g64
NtRp3829
(dp3830
g67
(dp3831
g94
g95
ssg76
g3820
sg69
(lp3832
S':'
asbag62
(g83
g64
NtRp3833
(dp3834
g67
(dp3835
sg76
g3820
sg69
(lp3836
g62
(g63
g64
NtRp3837
(dp3838
g67
(dp3839
g75
I5
ssg76
g3833
sg69
(lp3840
S'OccupyPronz'
p3841
asbasbasbag62
(g78
g64
NtRp3842
(dp3843
g67
(dp3844
sg76
g2985
sg69
(lp3845
g62
(g83
g64
NtRp3846
(dp3847
g67
(dp3848
g87
g88
ssg76
g3842
sg69
(lp3849
g2142
asbag62
(g83
g64
NtRp3850
(dp3851
g67
(dp3852
g94
g95
ssg76
g3842
sg69
(lp3853
S':'
asbag62
(g83
g64
NtRp3854
(dp3855
g67
(dp3856
sg76
g3842
sg69
(lp3857
g62
(g63
g64
NtRp3858
(dp3859
g67
(dp3860
g75
I5
ssg76
g3854
sg69
(lp3861
g2155
asbasbasbag62
(g78
g64
NtRp3862
(dp3863
g67
(dp3864
sg76
g2985
sg69
(lp3865
g62
(g83
g64
NtRp3866
(dp3867
g67
(dp3868
g87
g88
ssg76
g3862
sg69
(lp3869
S'view'
p3870
asbag62
(g83
g64
NtRp3871
(dp3872
g67
(dp3873
g94
g95
ssg76
g3862
sg69
(lp3874
S':'
asbag62
(g83
g64
NtRp3875
(dp3876
g67
(dp3877
sg76
g3862
sg69
(lp3878
g62
(g63
g64
NtRp3879
(dp3880
g67
(dp3881
g75
I5
ssg76
g3875
sg69
(lp3882
S'default/index.html'
p3883
asbasbasbasbasbsS'locals'
p3884
(dp3885
g2098
S"'8888'"
p3886
sS'type'
p3887
S"'localhost'"
p3888
sS'self'
p3889
S'<urllib.FancyURLopener instance>'
p3890
sS'data'
p3891
S"'message=Someone+has+hit+the+site&group=default&signature='"
p3892
sS'fullurl'
p3893
S"'localhost:8888'"
p3894
sssS'traceback'
p3895
S'Traceback (most recent call last):\n  File "/Users/schultzc/Documents/[Buffer]Overflow/github/fried/src/gluon/restricted.py", line 194, in restricted\n    exec ccode in environment\n  File "/Users/schultzc/Documents/[Buffer]Overflow/github/fried/src/applications/fried/controllers/default.py", line 21, in <module>\n  File "/Users/schultzc/Documents/[Buffer]Overflow/github/fried/src/gluon/globals.py", line 149, in <lambda>\n    self._caller = lambda f: f()\n  File "/Users/schultzc/Documents/[Buffer]Overflow/github/fried/src/applications/fried/controllers/default.py", line 10, in index\n    comet_send(\'localhost:8888\', \'Someone has hit the site\')\n  File "/Users/schultzc/Documents/[Buffer]Overflow/github/fried/src/gluon/contrib/comet_messaging.py", line 89, in comet_send\n    f = urllib.urlopen(url, params)\n  File "/Library/Frameworks/Python.framework/Versions/2.7/lib/python2.7/urllib.py", line 86, in urlopen\n    return opener.open(url, data)\n  File "/Library/Frameworks/Python.framework/Versions/2.7/lib/python2.7/urllib.py", line 202, in open\n    return self.open_unknown(fullurl, data)\n  File "/Library/Frameworks/Python.framework/Versions/2.7/lib/python2.7/urllib.py", line 214, in open_unknown\n    raise IOError, (\'url error\', \'unknown url type\', type)\nIOError: [Errno url error] unknown url type: \'localhost\'\n'
p3896
s.